BL51 BANKED LINKER/LOCATER V6.22                                                        04/11/2016  14:38:45  PAGE 1


BL51 BANKED LINKER/LOCATER V6.22, INVOKED BY:
D:\KEIL\C51\BIN\BL51.EXE STARTUP.obj, main.obj, usart.obj, key.obj, tm1629.obj, timer.obj, ds1302.obj, ev1527.obj, decod
>> er.obj, at24c256.obj, gd5800.obj, com.obj TO Receiver_keil RAMSIZE (256)


MEMORY MODEL: LARGE


INPUT MODULES INCLUDED:
  STARTUP.obj (?C_STARTUP)
  main.obj (MAIN)
  usart.obj (USART)
  key.obj (KEY)
  tm1629.obj (TM1629)
  timer.obj (TIMER)
  ds1302.obj (DS1302)
  ev1527.obj (EV1527)
  decoder.obj (DECODER)
  at24c256.obj (AT24C256)
  gd5800.obj (GD5800)
  com.obj (COM)
  D:\KEIL\C51\LIB\C51L.LIB (?C_INIT)
  D:\KEIL\C51\LIB\C51L.LIB (?C?COPY)
  D:\KEIL\C51\LIB\C51L.LIB (?C?CLDPTR)
  D:\KEIL\C51\LIB\C51L.LIB (?C?CLDOPTR)
  D:\KEIL\C51\LIB\C51L.LIB (?C?CSTPTR)
  D:\KEIL\C51\LIB\C51L.LIB (?C?CSTOPTR)
  D:\KEIL\C51\LIB\C51L.LIB (?C?IMUL)
  D:\KEIL\C51\LIB\C51L.LIB (?C?UIDIV)
  D:\KEIL\C51\LIB\C51L.LIB (?C?ILDIX)
  D:\KEIL\C51\LIB\C51L.LIB (?C?ULCMP)
  D:\KEIL\C51\LIB\C51L.LIB (?C?LSHL)
  D:\KEIL\C51\LIB\C51L.LIB (?C?LLDPTR)
  D:\KEIL\C51\LIB\C51L.LIB (?C?LLDOPTR)
  D:\KEIL\C51\LIB\C51L.LIB (?C?LSTPTR)
  D:\KEIL\C51\LIB\C51L.LIB (?C?LSTXDATA)
  D:\KEIL\C51\LIB\C51L.LIB (?C?CCASE)
  D:\KEIL\C51\LIB\C51L.LIB (?C?ICALL)
  D:\KEIL\C51\LIB\C51L.LIB (?C?STRCMP)
  D:\KEIL\C51\LIB\C51L.LIB (?C?MEMSET)
  D:\KEIL\C51\LIB\C51L.LIB (VSPRINTF)
  D:\KEIL\C51\LIB\C51L.LIB (?C?LLDIDATA)
  D:\KEIL\C51\LIB\C51L.LIB (?C?LLDXDATA)
  D:\KEIL\C51\LIB\C51L.LIB (?C?LLDPDATA)
  D:\KEIL\C51\LIB\C51L.LIB (?C?LLDCODE)
  D:\KEIL\C51\LIB\C51L.LIB (?C?LSTIDATA)
  D:\KEIL\C51\LIB\C51L.LIB (?C?LSTPDATA)
  D:\KEIL\C51\LIB\C51L.LIB (PRINTF)
  D:\KEIL\C51\LIB\C51L.LIB (?C?PLDIXDATA)
  D:\KEIL\C51\LIB\C51L.LIB (?C?PSTXDATA)
  D:\KEIL\C51\LIB\C51L.LIB (PUTCHAR)


LINK MAP OF MODULE:  Receiver_keil (?C_STARTUP)


            TYPE    BASE      LENGTH    RELOCATION   SEGMENT NAME
            -----------------------------------------------------
BL51 BANKED LINKER/LOCATER V6.22                                                      04/11/2016  14:38:45  PAGE 2



            * * * * * * *   D A T A   M E M O R Y   * * * * * * *
            REG     0000H     0008H     ABSOLUTE     "REG BANK 0"
            REG     0008H     0008H     ABSOLUTE     "REG BANK 1"
            DATA    0010H     0005H     UNIT         ?DT?PRINTF?PRINTF
                    0015H     000BH                  *** GAP ***
            BIT     0020H.0   0001H.1   UNIT         ?BI?PRINTF?PRINTF
            BIT     0021H.1   0000H.1   UNIT         ?BI?USART
            BIT     0021H.2   0000H.1   UNIT         ?BI?AT24C256
                    0021H.3   0000H.5                *** GAP ***
            IDATA   0022H     0001H     UNIT         ?STACK

            * * * * * * *  X D A T A   M E M O R Y  * * * * * * *
            XDATA   0000H     03A1H     UNIT         ?XD?TM1629
            XDATA   03A1H     012EH     UNIT         ?XD?_UART_PRINTF?USART
            XDATA   04CFH     0051H     UNIT         _XDATA_GROUP_
            XDATA   0520H     0043H     UNIT         ?XD?KEY
            XDATA   0563H     0028H     UNIT         ?XD?PRINTF?PRINTF
            XDATA   058BH     0025H     UNIT         ?XD?EV1527
            XDATA   05B0H     001CH     UNIT         ?XD?DECODER
            XDATA   05CCH     0013H     UNIT         ?XD?USART
            XDATA   05DFH     0010H     UNIT         ?XD?DS1302
            XDATA   05EFH     0010H     UNIT         ?XD?AT24C256
            XDATA   05FFH     000EH     UNIT         ?XD?TIMER
            XDATA   060DH     0006H     UNIT         ?XD?_VSPRINTF?VSPRINTF
            XDATA   0613H     0003H     UNIT         ?XD?_USART1_SENDSTRING?USART
            XDATA   0616H     0003H     UNIT         ?XD?_USART2_SENDSTRING?USART
            XDATA   0619H     0003H     UNIT         ?XD?_SENDSTRING?USART

            * * * * * * *   C O D E   M E M O R Y   * * * * * * *
            CODE    0000H     0003H     ABSOLUTE     
            CODE    0003H     0003H     ABSOLUTE     
            CODE    0006H     0005H     UNIT         ?PR?FUN1?TM1629
            CODE    000BH     0003H     ABSOLUTE     
            CODE    000EH     000DH     UNIT         ?PR?FUN14?TM1629
            CODE    001BH     0003H     ABSOLUTE     
            CODE    001EH     0005H     UNIT         ?PR?FUN11?TM1629
            CODE    0023H     0003H     ABSOLUTE     
            CODE    0026H     001DH     UNIT         ?PR?FUN53?TM1629
            CODE    0043H     0003H     ABSOLUTE     
            CODE    0046H     0F7CH     UNIT         ?PR?DECODERPROCESS?DECODER
            CODE    0FC2H     0D14H     UNIT         ?PR?KEYPROCESS?KEY
            CODE    1CD6H     0561H     UNIT         ?C_INITSEG
            CODE    2237H     04E6H     UNIT         ?C?LIB_CODE
            CODE    271DH     0409H     UNIT         ?PR?KEYSCAN?KEY
            CODE    2B26H     0365H     UNIT         ?PR?PRINTF?PRINTF
            CODE    2E8BH     0358H     UNIT         ?CO?KEY
            CODE    31E3H     02AEH     UNIT         ?PR?RF_DECODE_MAIN_SJZ_TEST?EV1527
            CODE    3491H     022EH     UNIT         ?PR?_CANCEL_FUNTION?TM1629
            CODE    36BFH     01D5H     UNIT         ?PR?_MCURAM_TO_DISPLAYRAM?TM1629
            CODE    3894H     01CDH     UNIT         ?PR?_SUBMENUF6_1?GD5800
            CODE    3A61H     01CAH     UNIT         ?PR?_MCU_TO_COMPUTER?COM
            CODE    3C2BH     01BDH     UNIT         ?PR?ENV_INIT?KEY
            CODE    3DE8H     01B1H     UNIT         ?PR?LOGOUTPROCESS?TM1629
            CODE    3F99H     01A9H     UNIT         ?PR?DISPLAY_TIME?TM1629
            CODE    4142H     017CH     UNIT         ?PR?CYCLEPROCESS?TM1629
            CODE    42BEH     0170H     UNIT         ?PR?_SEARCH_FUNTION?TM1629
BL51 BANKED LINKER/LOCATER V6.22                                                      04/11/2016  14:38:45  PAGE 3


            CODE    442EH     0160H     UNIT         ?PR?TM1629_LOAD?TM1629
            CODE    458EH     014BH     UNIT         ?PR?RECEIVE_RF_DECODER?EV1527
            CODE    46D9H     0147H     UNIT         ?PR?_SUBMENUF6_1_VOICESELECT?GD5800
            CODE    4820H     013BH     UNIT         ?PR?TIMER0_ISR?TIMER
            CODE    495BH     0138H     UNIT         ?PR?_REGISTER_ALARM_FUNCTION?AT24C256
            CODE    4A93H     0138H     UNIT         ?PR?_REGISTER_CANCEL_FUNCTION?AT24C256
            CODE    4BCBH     0137H     UNIT         ?PR?RF_DECODE_MAIN?EV1527
            CODE    4D02H     0131H     UNIT         ?PR?_REGISTER_HOST_FUNCTION?AT24C256
            CODE    4E33H     012CH     UNIT         ?PR?KEYDECODER?KEY
            CODE    4F5FH     012BH     UNIT         ?PR?_DELETE_ALARM_FUNCTION?AT24C256
            CODE    508AH     012BH     UNIT         ?PR?_DELETE_CANCEL_FUNCTION?AT24C256
            CODE    51B5H     0126H     UNIT         ?PR?_REGISTER_CALL_FUNCTION?AT24C256
            CODE    52DBH     0124H     UNIT         ?PR?_DELETE_HOST_FUNCTION?AT24C256
            CODE    53FFH     0114H     UNIT         ?PR?_DELETE_CALL_FUNCTION?AT24C256
            CODE    5513H     00F9H     UNIT         ?PR?CYCLEDOWN?TM1629
            CODE    560CH     00DBH     UNIT         ?PR?_DECODER_TEMP_TO_MCURAM?TM1629
            CODE    56E7H     00D3H     UNIT         ?PR?_FIND_RF_EEPROM_HOST?AT24C256
            CODE    57BAH     00D3H     UNIT         ?PR?_FIND_RF_EEPROM_ALARM?AT24C256
            CODE    588DH     00D3H     UNIT         ?PR?_FIND_RF_EEPROM_CANCEL?AT24C256
            CODE    5960H     00CCH     UNIT         ?PR?_FIND_RF_EEPROM_CALL?AT24C256
            CODE    5A2CH     00C6H     UNIT         ?PR?CYCLEUP?TM1629
            CODE    5AF2H     00C3H     UNIT         ?PR?FUN105?TM1629
            CODE    5BB5H     00C1H     UNIT         ?PR?UART?USART
            CODE    5C76H     00BCH     UNIT         ?PR?DISPLAY?TM1629
            CODE    5D32H     00A0H     UNIT         ?CO?AT24C256
            CODE    5DD2H     0098H     UNIT         ?PR?ENV_LOAD?KEY
            CODE    5E6AH     0095H     UNIT         ?PR?FUN106?TM1629
            CODE    5EFFH     0092H     UNIT         ?PR?UART2?USART
            CODE    5F91H     008FH     UNIT         ?PR?DS1302_WRITE_TIME?DS1302
            CODE    6020H     008CH     UNIT         ?C_C51STARTUP
            CODE    60ACH     008BH     UNIT         ?PR?LOGOUT?TM1629
            CODE    6137H     0077H     UNIT         ?PR?DS1302_READ_TIME?DS1302
            CODE    61AEH     0076H     UNIT         ?PR?_IRCVSTR?AT24C256
            CODE    6224H     0069H     UNIT         ?PR?_FIND_RF_EEPROM?AT24C256
            CODE    628DH     005FH     UNIT         ?PR?TM1629_INIT?TM1629
            CODE    62ECH     005FH     UNIT         ?PR?_SHOW_THREE_NUMBER?TM1629
            CODE    634BH     005CH     UNIT         ?PR?DELETE_ALL_DATA?AT24C256
            CODE    63A7H     0059H     UNIT         ?PR?_SHOW_FOUR_NUMBER?TM1629
            CODE    6400H     0055H     UNIT         ?PR?_UART_PRINTF?USART
            CODE    6455H     0055H     UNIT         ?PR?VAR_INIT?KEY
            CODE    64AAH     0055H     UNIT         ?PR?_ISENDSTR?AT24C256
            CODE    64FFH     0051H     UNIT         ?PR?TIMER1_ISR?TIMER
            CODE    6550H     0050H     UNIT         ?PR?FUN49?TM1629
            CODE    65A0H     004EH     UNIT         ?PR?_MCURAM_TO_MCURAM_DOWN?TM1629
            CODE    65EEH     004EH     UNIT         ?PR?_MCURAM_TO_MCURAM_UP?TM1629
            CODE    663CH     004EH     UNIT         ?PR?FUN95?TM1629
            CODE    668AH     004AH     UNIT         ?PR?FUN15?TM1629
            CODE    66D4H     004AH     UNIT         ?PR?_VSPRINTF?VSPRINTF
            CODE    671EH     0048H     UNIT         ?PR?_DISPLAY_LIGHT?TM1629
            CODE    6766H     0048H     UNIT         ?PR?REPLAY_PROCESS?DECODER
            CODE    67AEH     003FH     UNIT         ?PR?_DS1302_WRITE_BYTE?DS1302
            CODE    67EDH     003FH     UNIT         ?PR?_DS1302_READ_BYTE?DS1302
            CODE    682CH     003DH     UNIT         ?PR?_SENDBYTE?AT24C256
            CODE    6869H     003CH     UNIT         ?PR?KEY_INIT?KEY
            CODE    68A5H     003AH     UNIT         ?PR?FUN93?TM1629
            CODE    68DFH     003AH     UNIT         ?PR?_GD5800_SELECT_CHAPTER_NEW?GD5800
            CODE    6919H     0038H     UNIT         ?PR?FUN16?TM1629
BL51 BANKED LINKER/LOCATER V6.22                                                      04/11/2016  14:38:45  PAGE 4


            CODE    6951H     0038H     UNIT         ?PR?FUN17?TM1629
            CODE    6989H     0036H     UNIT         ?PR?FUN94?TM1629
            CODE    69BFH     0035H     UNIT         ?PR?TM1629_AWAIT?TM1629
            CODE    69F4H     0033H     UNIT         ?PR?_USART1_SENDSTRING?USART
            CODE    6A27H     0033H     UNIT         ?PR?_USART2_SENDSTRING?USART
            CODE    6A5AH     0033H     UNIT         ?PR?_SENDSTRING?USART
            CODE    6A8DH     0033H     UNIT         ?PR?_GD5800_SELECT_CHAPTER?GD5800
            CODE    6AC0H     0031H     UNIT         ?PR?FUN20?TM1629
            CODE    6AF1H     0030H     UNIT         ?PR?_SHOW_TWO_NUMBER?TM1629
            CODE    6B21H     002CH     UNIT         ?PR?MAIN?MAIN
            CODE    6B4DH     002BH     UNIT         ?PR?_WRITEDATATO1629?TM1629
            CODE    6B78H     002BH     UNIT         ?PR?_WRITEDATATO1629_2?TM1629
            CODE    6BA3H     002BH     UNIT         ?PR?_WRITEDATATO1629_3?TM1629
            CODE    6BCEH     0029H     UNIT         ?PR?TM1629_CLEAR?TM1629
            CODE    6BF7H     0028H     UNIT         ?PR?FUN19?TM1629
            CODE    6C1FH     0028H     UNIT         ?PR?FUN54?TM1629
            CODE    6C47H     0028H     UNIT         ?PR?FUN55?TM1629
            CODE    6C6FH     0028H     UNIT         ?PR?FUN56?TM1629
            CODE    6C97H     0028H     UNIT         ?PR?FUN58?TM1629
            CODE    6CBFH     0028H     UNIT         ?PR?FUN59?TM1629
            CODE    6CE7H     0028H     UNIT         ?PR?FUN60?TM1629
            CODE    6D0FH     0028H     UNIT         ?PR?FUN62?TM1629
            CODE    6D37H     0028H     UNIT         ?PR?FUN63?TM1629
            CODE    6D5FH     0028H     UNIT         ?PR?FUN64?TM1629
            CODE    6D87H     0028H     UNIT         ?PR?FUN66?TM1629
            CODE    6DAFH     0028H     UNIT         ?PR?FUN67?TM1629
            CODE    6DD7H     0028H     UNIT         ?PR?FUN68?TM1629
            CODE    6DFFH     0028H     UNIT         ?PR?FUN70?TM1629
            CODE    6E27H     0028H     UNIT         ?PR?FUN71?TM1629
            CODE    6E4FH     0028H     UNIT         ?PR?FUN72?TM1629
            CODE    6E77H     0028H     UNIT         ?PR?FUN74?TM1629
            CODE    6E9FH     0028H     UNIT         ?PR?FUN75?TM1629
            CODE    6EC7H     0028H     UNIT         ?PR?FUN76?TM1629
            CODE    6EEFH     0028H     UNIT         ?PR?FUN78?TM1629
            CODE    6F17H     0028H     UNIT         ?PR?FUN79?TM1629
            CODE    6F3FH     0028H     UNIT         ?PR?FUN80?TM1629
            CODE    6F67H     0027H     UNIT         ?PR?PUTCHAR?PUTCHAR
            CODE    6F8EH     0025H     UNIT         ?PR?RCVBYTE?AT24C256
            CODE    6FB3H     0024H     UNIT         ?PR?FUN0?TM1629
            CODE    6FD7H     0024H     UNIT         ?PR?FUN18?TM1629
            CODE    6FFBH     0023H     UNIT         ?PR?USARTINIT?USART
            CODE    701EH     0023H     UNIT         ?PR?FUN57?TM1629
            CODE    7041H     0023H     UNIT         ?PR?FUN61?TM1629
            CODE    7064H     0023H     UNIT         ?PR?FUN65?TM1629
            CODE    7087H     0023H     UNIT         ?PR?FUN69?TM1629
            CODE    70AAH     0023H     UNIT         ?PR?FUN73?TM1629
            CODE    70CDH     0023H     UNIT         ?PR?FUN77?TM1629
            CODE    70F0H     0023H     UNIT         ?PR?FUN81?TM1629
            CODE    7113H     0022H     UNIT         ?PR?FUN50?TM1629
            CODE    7135H     0022H     UNIT         ?PR?FUN51?TM1629
            CODE    7157H     0022H     UNIT         ?PR?FUN52?TM1629
            CODE    7179H     0021H     UNIT         ?PR?_GD5800_SOUND_VOLUME?GD5800
            CODE    719AH     0020H     UNIT         ?CO?TM1629
            CODE    71BAH     001FH     UNIT         ?PR?_TM1629_F?TM1629
            CODE    71D9H     001FH     UNIT         ?PR?_TM1629_E?TM1629
            CODE    71F8H     001EH     UNIT         ?PR?FUN2?TM1629
            CODE    7216H     001EH     UNIT         ?PR?FUN3?TM1629
BL51 BANKED LINKER/LOCATER V6.22                                                      04/11/2016  14:38:45  PAGE 5


            CODE    7234H     001EH     UNIT         ?PR?FUN4?TM1629
            CODE    7252H     001EH     UNIT         ?PR?FUN5?TM1629
            CODE    7270H     001EH     UNIT         ?PR?FUN6?TM1629
            CODE    728EH     001EH     UNIT         ?PR?FUN7?TM1629
            CODE    72ACH     001EH     UNIT         ?PR?FUN8?TM1629
            CODE    72CAH     001EH     UNIT         ?PR?FUN9?TM1629
            CODE    72E8H     001EH     UNIT         ?PR?FUN10?TM1629
            CODE    7306H     001DH     UNIT         ?PR?FUN87?TM1629
            CODE    7323H     001CH     UNIT         ?PR?RF_INI_RECEIVE?EV1527
            CODE    733FH     001AH     UNIT         ?PR?FUN46?TM1629
            CODE    7359H     0019H     UNIT         ?PR?_SEND_COMMAND_2?TM1629
            CODE    7372H     0019H     UNIT         ?PR?_SEND_COMMAND_3?TM1629
            CODE    738BH     0019H     UNIT         ?PR?GD5800_INITIALIZATION?GD5800
            CODE    73A4H     0017H     UNIT         ?PR?_SHOW_ONE_NUMBER?TM1629
            CODE    73BBH     0016H     UNIT         ?PR?_SEND_COMMAND?TM1629
            CODE    73D1H     0016H     UNIT         ?PR?SHOW_OFF?TM1629
            CODE    73E7H     0016H     UNIT         ?PR?START_I2C?AT24C256
            CODE    73FDH     0015H     UNIT         ?PR?FUN103?TM1629
            CODE    7412H     0015H     UNIT         ?PR?_DELAYMS?AT24C256
            CODE    7427H     0014H     UNIT         ?PR?_DELAYMULTI10MS?KEY
            CODE    743BH     0014H     UNIT         ?PR?SHOW_ON?TM1629
            CODE    744FH     0014H     UNIT         ?PR?GD5800_STOP_MUSIC?GD5800
            CODE    7463H     0014H     UNIT         ?PR?GD5800_PLAY_MUSIC?GD5800
            CODE    7477H     0012H     UNIT         ?PR?_TM1629_DELAY?TM1629
            CODE    7489H     0012H     UNIT         ?PR?FUN21?TM1629
            CODE    749BH     0012H     UNIT         ?PR?FUN22?TM1629
            CODE    74ADH     0012H     UNIT         ?PR?FUN23?TM1629
            CODE    74BFH     0012H     UNIT         ?PR?FUN24?TM1629
            CODE    74D1H     0012H     UNIT         ?PR?FUN25?TM1629
            CODE    74E3H     0012H     UNIT         ?PR?FUN26?TM1629
            CODE    74F5H     0012H     UNIT         ?PR?FUN27?TM1629
            CODE    7507H     0012H     UNIT         ?PR?FUN28?TM1629
            CODE    7519H     0012H     UNIT         ?PR?FUN89?TM1629
            CODE    752BH     0011H     UNIT         ?PR?FUN104?TM1629
            CODE    753CH     0011H     UNIT         ?PR?STOP_I2C?AT24C256
            CODE    754DH     0011H     UNIT         ?PR?ACK_I2C?AT24C256
            CODE    755EH     0011H     UNIT         ?PR?NOACK_I2C?AT24C256
            CODE    756FH     0010H     UNIT         ?PR?INIT_TIMER0?TIMER
            CODE    757FH     000FH     UNIT         ?CO?USART
            CODE    758EH     000EH     UNIT         ?PR?DELAY10MS?KEY
            CODE    759CH     000EH     UNIT         ?PR?FUN42?TM1629
            CODE    75AAH     000EH     UNIT         ?PR?INIT_TIMER1?TIMER
            CODE    75B8H     000BH     UNIT         ?PR?TM1629_DISPLAY_BUFF_CLEAR?TM1629
            CODE    75C3H     000BH     UNIT         ?PR?_SET_FD_TABLE?TIMER
            CODE    75CEH     000BH     UNIT         ?PR?_SET_FILTER_MAIN?TIMER
            CODE    75D9H     000BH     UNIT         ?PR?DS1302_INIT?DS1302
            CODE    75E4H     0009H     UNIT         ?PR?_USART1_SENDDATA?USART
            CODE    75EDH     0009H     UNIT         ?PR?_USART2_SENDDATA?USART
            CODE    75F6H     0009H     UNIT         ?PR?_SENDDATA?USART
            CODE    75FFH     0009H     UNIT         ?PR?RETURN_RF_TRANS_COUNT?EV1527
            CODE    7608H     0008H     UNIT         ?PR?FUN31?TM1629
            CODE    7610H     0008H     UNIT         ?PR?FUN32?TM1629
            CODE    7618H     0008H     UNIT         ?PR?FUN47?TM1629
            CODE    7620H     0008H     UNIT         ?PR?FUN48?TM1629
            CODE    7628H     0008H     UNIT         ?PR?FUN82?TM1629
            CODE    7630H     0008H     UNIT         ?PR?FUN83?TM1629
            CODE    7638H     0008H     UNIT         ?PR?FUN84?TM1629
BL51 BANKED LINKER/LOCATER V6.22                                                      04/11/2016  14:38:45  PAGE 6


            CODE    7640H     0008H     UNIT         ?PR?FUN85?TM1629
            CODE    7648H     0008H     UNIT         ?PR?FUN86?TM1629
            CODE    7650H     0008H     UNIT         ?PR?FUN88?TM1629
            CODE    7658H     0008H     UNIT         ?PR?FUN90?TM1629
            CODE    7660H     0008H     UNIT         ?PR?FUN91?TM1629
            CODE    7668H     0008H     UNIT         ?PR?FUN92?TM1629
            CODE    7670H     0008H     UNIT         ?PR?FUN97?TM1629
            CODE    7678H     0008H     UNIT         ?PR?FUN99?TM1629
            CODE    7680H     0008H     UNIT         ?PR?FUN101?TM1629
            CODE    7688H     0008H     UNIT         ?PR?EXINT0?EV1527
            CODE    7690H     0007H     UNIT         ?PR?EXINT0_INIT?EV1527
            CODE    7697H     0006H     UNIT         ?PR?RETURN_FUNC_INDEX?KEY
            CODE    769DH     0006H     UNIT         ?PR?_SET_FUNC_INDEX?KEY
            CODE    76A3H     0006H     UNIT         ?PR?RETURN_TWO_MENU_F3_E1?KEY
            CODE    76A9H     0006H     UNIT         ?PR?RETURN_TWO_MENU_F3_E2?KEY
            CODE    76AFH     0006H     UNIT         ?PR?RETURN_TWO_MENU_F4_E1?KEY
            CODE    76B5H     0006H     UNIT         ?PR?RETURN_TWO_MENU_F5_E1?KEY
            CODE    76BBH     0006H     UNIT         ?PR?RETURN_TWO_MENU_F6_E1?KEY
            CODE    76C1H     0006H     UNIT         ?PR?RETURN_TWO_MENU_F6_E2?KEY
            CODE    76C7H     0006H     UNIT         ?PR?RETURN_TWO_MENU_F6_E3?KEY
            CODE    76CDH     0006H     UNIT         ?PR?RETURN_TWO_MENU_F6_E4?KEY
            CODE    76D3H     0006H     UNIT         ?PR?RETURN_TWO_MENU_F6_E5?KEY
            CODE    76D9H     0006H     UNIT         ?PR?RETURN_TWO_MENU_F6_E6?KEY
            CODE    76DFH     0006H     UNIT         ?PR?RETURN_TWO_MENU_F6_E7?KEY
            CODE    76E5H     0006H     UNIT         ?PR?RETURN_TWO_MENU_F6_E8?KEY
            CODE    76EBH     0006H     UNIT         ?PR?RETURN_TWO_MENU_F7_E1?KEY
            CODE    76F1H     0006H     UNIT         ?PR?RETURN_TWO_MENU_F7_E2?KEY
            CODE    76F7H     0006H     UNIT         ?PR?RETURN_TWO_MENU_F7_E3?KEY
            CODE    76FDH     0006H     UNIT         ?PR?RETURN_TWO_MENU_F7_E4?KEY
            CODE    7703H     0006H     UNIT         ?PR?RETURN_TWO_MENU_F8_E1?KEY
            CODE    7709H     0006H     UNIT         ?PR?RETURN_TWO_MENU_F8_E2?KEY
            CODE    770FH     0006H     UNIT         ?PR?RETURN_SOUND_TABLE?KEY
            CODE    7715H     0006H     UNIT         ?PR?_SET_SOUND_TABLE?KEY
            CODE    771BH     0006H     UNIT         ?PR?RETURN_TWO_MENU_FC_E1?KEY
            CODE    7721H     0006H     UNIT         ?PR?RETURN_TWO_MENU_FB_E1?KEY
            CODE    7727H     0006H     UNIT         ?PR?RETURN_AWAIT_NUMBER_TABLE?TIMER
            CODE    772DH     0006H     UNIT         ?PR?_SET_AWAIT_NUMBER_TABLE?TIMER
            CODE    7733H     0006H     UNIT         ?PR?_SET_MAIN_PRESS_TIME_TABLE?TIMER
            CODE    7739H     0006H     UNIT         ?PR?RETURN_MAIN_PRESS_TIME?TIMER
            CODE    773FH     0006H     UNIT         ?PR?CLEAR_MAIN_PRESS_TIME?TIMER
            CODE    7745H     0006H     UNIT         ?PR?RETURN_LOGOUT_CYCLE_TABLE?TIMER
            CODE    774BH     0006H     UNIT         ?PR?_SET_LOGOUT_CYCLE_TABLE?TIMER
            CODE    7751H     0006H     UNIT         ?PR?CLEAR_RETURN_STANDBY_TIME?TIMER
            CODE    7757H     0006H     UNIT         ?PR?_SET_MAIN_PRESS_TIME?TIMER
            CODE    775DH     0006H     UNIT         ?PR?RETURN_FD_TABLE?TIMER
            CODE    7763H     0006H     UNIT         ?PR?RETURN_FILTER_MAIN?TIMER
            CODE    7769H     0006H     UNIT         ?PR?RETURN_FILTER_OTHER?TIMER
            CODE    776FH     0006H     UNIT         ?PR?_SET_FILTER_OTHER?TIMER
            CODE    7775H     0006H     UNIT         ?PR?CLEAR_AGAIN_AND_AGAIN_TIME?TIMER
            CODE    777BH     0006H     UNIT         ?PR?CLEAR_SECOND_FILTER_TIME?TIMER
            CODE    7781H     0006H     UNIT         ?PR?_SET_SECOND_FILTER_TABLE?TIMER
            CODE    7787H     0006H     UNIT         ?PR?RETURN_SECOND_FILTER_TABLE?TIMER
            CODE    778DH     0006H     UNIT         ?PR?RETURN_AGAIN_RECEIVE_RF_DECODER_FINISHED?EV1527
            CODE    7793H     0006H     UNIT         ?PR?CLEAR_AGAIN_RECEIVE_RF_DECODER_FINISHED?EV1527
            CODE    7799H     0006H     UNIT         ?PR?RETURN_AGAIN_AND_AGAIN_DECODER_TABLE?EV1527
            CODE    779FH     0006H     UNIT         ?PR?CLEAR_AGAIN_AND_AGAIN_DECODER_TABLE?EV1527
            CODE    77A5H     0006H     UNIT         ?PR?RETURN_REGISTER_MANAGER?EV1527
BL51 BANKED LINKER/LOCATER V6.22                                                      04/11/2016  14:38:45  PAGE 7


            CODE    77ABH     0006H     UNIT         ?PR?CLEAR_REGISTER_MANAGER?EV1527
            CODE    77B1H     0006H     UNIT         ?PR?RETURN_TWO_MENU_SET_SUCCESS?DECODER
            CODE    77B7H     0006H     UNIT         ?PR?_SET_TWO_MENU_SET_SUCCESS?DECODER
            CODE    77BDH     0005H     UNIT         ?PR?FUN12?TM1629
            CODE    77C2H     0005H     UNIT         ?PR?FUN13?TM1629
            CODE    77C7H     0005H     UNIT         ?PR?FUN29?TM1629
            CODE    77CCH     0005H     UNIT         ?PR?FUN30?TM1629
            CODE    77D1H     0005H     UNIT         ?PR?FUN33?TM1629
            CODE    77D6H     0005H     UNIT         ?PR?FUN34?TM1629
            CODE    77DBH     0005H     UNIT         ?PR?FUN35?TM1629
            CODE    77E0H     0005H     UNIT         ?PR?FUN36?TM1629
            CODE    77E5H     0005H     UNIT         ?PR?FUN37?TM1629
            CODE    77EAH     0005H     UNIT         ?PR?FUN38?TM1629
            CODE    77EFH     0005H     UNIT         ?PR?FUN39?TM1629
            CODE    77F4H     0005H     UNIT         ?PR?FUN40?TM1629
            CODE    77F9H     0005H     UNIT         ?PR?FUN41?TM1629
            CODE    77FEH     0005H     UNIT         ?PR?FUN43?TM1629
            CODE    7803H     0005H     UNIT         ?PR?FUN44?TM1629
            CODE    7808H     0005H     UNIT         ?PR?FUN45?TM1629
            CODE    780DH     0005H     UNIT         ?PR?FUN96?TM1629
            CODE    7812H     0005H     UNIT         ?PR?FUN98?TM1629
            CODE    7817H     0005H     UNIT         ?PR?FUN100?TM1629
            CODE    781CH     0005H     UNIT         ?PR?FUN102?TM1629
            CODE    7821H     0003H     UNIT         ?PR?_DELAYUS2X?AT24C256



OVERLAY MAP OF MODULE:   Receiver_keil (?C_STARTUP)


SEGMENT                                            XDATA_GROUP
  +--> CALLED SEGMENT                            START    LENGTH
----------------------------------------------------------------
?C_C51STARTUP                                    -----    -----
  +--> ?PR?MAIN?MAIN
  +--> ?C_INITSEG

?PR?MAIN?MAIN                                    -----    -----
  +--> ?PR?USARTINIT?USART
  +--> ?PR?INIT_TIMER0?TIMER
  +--> ?PR?INIT_TIMER1?TIMER
  +--> ?PR?EXINT0_INIT?EV1527
  +--> ?PR?DS1302_INIT?DS1302
  +--> ?PR?GD5800_INITIALIZATION?GD5800
  +--> ?PR?DELAY10MS?KEY
  +--> ?PR?TM1629_INIT?TM1629
  +--> ?PR?ENV_INIT?KEY
  +--> ?PR?KEYPROCESS?KEY
  +--> ?PR?DECODERPROCESS?DECODER
  +--> ?PR?REPLAY_PROCESS?DECODER

?PR?DS1302_INIT?DS1302                           -----    -----
  +--> ?PR?_DS1302_WRITE_BYTE?DS1302

?PR?GD5800_INITIALIZATION?GD5800                 -----    -----
  +--> ?PR?_USART2_SENDDATA?USART

BL51 BANKED LINKER/LOCATER V6.22                                                      04/11/2016  14:38:45  PAGE 8


?PR?TM1629_INIT?TM1629                           04CFH    0001H
  +--> ?PR?DISPLAY?TM1629
  +--> ?PR?_GD5800_SELECT_CHAPTER?GD5800
  +--> ?PR?_TM1629_DELAY?TM1629

?PR?DISPLAY?TM1629                               -----    -----
  +--> ?PR?RETURN_TWO_MENU_F6_E5?KEY
  +--> ?PR?_SEND_COMMAND?TM1629
  +--> ?PR?_WRITEDATATO1629?TM1629
  +--> ?PR?_SEND_COMMAND_2?TM1629
  +--> ?PR?_WRITEDATATO1629_2?TM1629
  +--> ?PR?_SEND_COMMAND_3?TM1629
  +--> ?PR?_WRITEDATATO1629_3?TM1629

?PR?_SEND_COMMAND?TM1629                         -----    -----
  +--> ?PR?_WRITEDATATO1629?TM1629

?PR?_SEND_COMMAND_2?TM1629                       -----    -----
  +--> ?PR?_SEND_COMMAND?TM1629
  +--> ?PR?_WRITEDATATO1629_2?TM1629

?PR?_SEND_COMMAND_3?TM1629                       -----    -----
  +--> ?PR?_SEND_COMMAND_2?TM1629
  +--> ?PR?_WRITEDATATO1629_3?TM1629

?PR?_GD5800_SELECT_CHAPTER?GD5800                051BH    0002H
  +--> ?PR?_USART2_SENDDATA?USART

?PR?ENV_INIT?KEY                                 -----    -----
  +--> ?PR?_IRCVSTR?AT24C256
  +--> ?PR?DELAY10MS?KEY
  +--> ?PR?_GD5800_SOUND_VOLUME?GD5800

?PR?_IRCVSTR?AT24C256                            0514H    0007H
  +--> ?PR?START_I2C?AT24C256
  +--> ?PR?_SENDBYTE?AT24C256
  +--> ?PR?RCVBYTE?AT24C256
  +--> ?PR?ACK_I2C?AT24C256
  +--> ?PR?NOACK_I2C?AT24C256
  +--> ?PR?STOP_I2C?AT24C256

?PR?_GD5800_SOUND_VOLUME?GD5800                  04D1H    0001H
  +--> ?PR?_USART2_SENDDATA?USART

?PR?KEYPROCESS?KEY                               04CFH    0001H
  +--> ?PR?KEYDECODER?KEY
  +--> ?PR?RETURN_TWO_MENU_FB_E1?KEY
  +--> ?PR?RETURN_MAIN_PRESS_TIME?TIMER
  +--> ?PR?_DELETE_CALL_FUNCTION?AT24C256
  +--> ?PR?RETURN_SOUND_TABLE?KEY
  +--> ?PR?_GD5800_SELECT_CHAPTER?GD5800
  +--> ?PR?_SET_SOUND_TABLE?KEY
  +--> ?PR?_DELETE_HOST_FUNCTION?AT24C256
  +--> ?PR?_DELETE_ALARM_FUNCTION?AT24C256
  +--> ?PR?_DELETE_CANCEL_FUNCTION?AT24C256
  +--> ?PR?DELAY10MS?KEY
  +--> ?CO?KEY
BL51 BANKED LINKER/LOCATER V6.22                                                      04/11/2016  14:38:45  PAGE 9


  +--> ?PR?_SET_FILTER_MAIN?TIMER
  +--> ?PR?VAR_INIT?KEY
  +--> ?PR?ENV_LOAD?KEY
  +--> ?PR?KEY_INIT?KEY
  +--> ?PR?_ISENDSTR?AT24C256
  +--> ?PR?DELETE_ALL_DATA?AT24C256
  +--> ?PR?CLEAR_MAIN_PRESS_TIME?TIMER
  +--> ?PR?LOGOUT?TM1629
  +--> ?PR?GD5800_STOP_MUSIC?GD5800
  +--> ?PR?CYCLEUP?TM1629
  +--> ?PR?CYCLEDOWN?TM1629

?PR?KEYDECODER?KEY                               04D0H    0002H
  +--> ?PR?KEYSCAN?KEY
  +--> ?PR?RETURN_REGISTER_MANAGER?EV1527
  +--> ?PR?_SET_MAIN_PRESS_TIME?TIMER
  +--> ?PR?CLEAR_REGISTER_MANAGER?EV1527
  +--> ?PR?RETURN_FILTER_MAIN?TIMER
  +--> ?PR?RETURN_FILTER_OTHER?TIMER
  +--> ?PR?GD5800_STOP_MUSIC?GD5800
  +--> ?PR?DELAY10MS?KEY
  +--> ?PR?_SET_FILTER_OTHER?TIMER

?PR?KEYSCAN?KEY                                  04D2H    0005H
  +--> ?PR?DELAY10MS?KEY
  +--> ?PR?CLEAR_RETURN_STANDBY_TIME?TIMER
  +--> ?PR?CLEAR_MAIN_PRESS_TIME?TIMER
  +--> ?PR?_SET_MAIN_PRESS_TIME_TABLE?TIMER
  +--> ?PR?RETURN_TWO_MENU_FB_E1?KEY
  +--> ?PR?RETURN_MAIN_PRESS_TIME?TIMER
  +--> ?PR?_TM1629_F?TM1629
  +--> ?PR?RETURN_TWO_MENU_F6_E6?KEY
  +--> ?PR?_GD5800_SELECT_CHAPTER?GD5800
  +--> ?PR?_GD5800_SELECT_CHAPTER_NEW?GD5800
  +--> ?PR?_DELETE_CALL_FUNCTION?AT24C256
  +--> ?PR?_DELETE_HOST_FUNCTION?AT24C256
  +--> ?PR?_DELETE_ALARM_FUNCTION?AT24C256
  +--> ?PR?_DELETE_CANCEL_FUNCTION?AT24C256
  +--> ?PR?_SHOW_ONE_NUMBER?TM1629
  +--> ?PR?RETURN_TWO_MENU_FC_E1?KEY
  +--> ?PR?_TM1629_E?TM1629
  +--> ?PR?RETURN_TWO_MENU_F8_E1?KEY
  +--> ?PR?VAR_INIT?KEY
  +--> ?PR?ENV_LOAD?KEY
  +--> ?PR?KEY_INIT?KEY
  +--> ?PR?_ISENDSTR?AT24C256
  +--> ?PR?DELETE_ALL_DATA?AT24C256
  +--> ?PR?_SET_LOGOUT_CYCLE_TABLE?TIMER

?PR?_TM1629_F?TM1629                             -----    -----
  +--> ?PR?TM1629_CLEAR?TM1629
  +--> ?PR?DISPLAY?TM1629

?PR?_GD5800_SELECT_CHAPTER_NEW?GD5800            0509H    0002H
  +--> ?PR?_GD5800_SELECT_CHAPTER?GD5800
  +--> ?PR?DELAY10MS?KEY
  +--> ?PR?_SET_SOUND_TABLE?KEY
BL51 BANKED LINKER/LOCATER V6.22                                                      04/11/2016  14:38:45  PAGE 10



?PR?_DELETE_CALL_FUNCTION?AT24C256               04D7H    002FH
  +--> ?CO?AT24C256
  +--> ?PR?_ISENDSTR?AT24C256
  +--> ?PR?DELAY10MS?KEY
  +--> ?PR?_IRCVSTR?AT24C256

?PR?_ISENDSTR?AT24C256                           0509H    0007H
  +--> ?PR?START_I2C?AT24C256
  +--> ?PR?_SENDBYTE?AT24C256
  +--> ?PR?STOP_I2C?AT24C256

?PR?_DELETE_HOST_FUNCTION?AT24C256               04D7H    002FH
  +--> ?CO?AT24C256
  +--> ?PR?_ISENDSTR?AT24C256
  +--> ?PR?DELAY10MS?KEY
  +--> ?PR?_IRCVSTR?AT24C256

?PR?_DELETE_ALARM_FUNCTION?AT24C256              04D7H    002FH
  +--> ?CO?AT24C256
  +--> ?PR?_ISENDSTR?AT24C256
  +--> ?PR?DELAY10MS?KEY
  +--> ?PR?_IRCVSTR?AT24C256

?PR?_DELETE_CANCEL_FUNCTION?AT24C256             04D7H    002FH
  +--> ?CO?AT24C256
  +--> ?PR?_ISENDSTR?AT24C256
  +--> ?PR?DELAY10MS?KEY
  +--> ?PR?_IRCVSTR?AT24C256

?PR?_SHOW_ONE_NUMBER?TM1629                      -----    -----
  +--> ?PR?TM1629_CLEAR?TM1629
  +--> ?PR?DISPLAY?TM1629

?PR?_TM1629_E?TM1629                             -----    -----
  +--> ?PR?TM1629_CLEAR?TM1629
  +--> ?PR?DISPLAY?TM1629

?PR?ENV_LOAD?KEY                                 -----    -----
  +--> ?PR?_ISENDSTR?AT24C256
  +--> ?PR?DELAY10MS?KEY

?PR?DELETE_ALL_DATA?AT24C256                     04D7H    0022H
  +--> ?CO?AT24C256
  +--> ?PR?_ISENDSTR?AT24C256
  +--> ?PR?DELAY10MS?KEY

?PR?GD5800_STOP_MUSIC?GD5800                     -----    -----
  +--> ?PR?_USART2_SENDDATA?USART

?CO?KEY                                          -----    -----
  +--> ?PR?FUN0?TM1629
  +--> ?PR?FUN1?TM1629
  +--> ?PR?FUN2?TM1629
  +--> ?PR?FUN3?TM1629
  +--> ?PR?FUN4?TM1629
  +--> ?PR?FUN5?TM1629
BL51 BANKED LINKER/LOCATER V6.22                                                      04/11/2016  14:38:45  PAGE 11


  +--> ?PR?FUN6?TM1629
  +--> ?PR?FUN7?TM1629
  +--> ?PR?FUN8?TM1629
  +--> ?PR?FUN9?TM1629
  +--> ?PR?FUN10?TM1629
  +--> ?PR?FUN11?TM1629
  +--> ?PR?FUN12?TM1629
  +--> ?PR?FUN13?TM1629
  +--> ?PR?FUN14?TM1629
  +--> ?PR?FUN15?TM1629
  +--> ?PR?FUN16?TM1629
  +--> ?PR?FUN17?TM1629
  +--> ?PR?FUN18?TM1629
  +--> ?PR?FUN19?TM1629
  +--> ?PR?FUN20?TM1629
  +--> ?PR?FUN21?TM1629
  +--> ?PR?FUN22?TM1629
  +--> ?PR?FUN23?TM1629
  +--> ?PR?FUN24?TM1629
  +--> ?PR?FUN25?TM1629
  +--> ?PR?FUN26?TM1629
  +--> ?PR?FUN27?TM1629
  +--> ?PR?FUN28?TM1629
  +--> ?PR?FUN29?TM1629
  +--> ?PR?FUN30?TM1629
  +--> ?PR?FUN31?TM1629
  +--> ?PR?FUN32?TM1629
  +--> ?PR?FUN33?TM1629
  +--> ?PR?FUN34?TM1629
  +--> ?PR?FUN35?TM1629
  +--> ?PR?FUN36?TM1629
  +--> ?PR?FUN37?TM1629
  +--> ?PR?FUN38?TM1629
  +--> ?PR?FUN39?TM1629
  +--> ?PR?FUN40?TM1629
  +--> ?PR?FUN41?TM1629
  +--> ?PR?FUN42?TM1629
  +--> ?PR?FUN43?TM1629
  +--> ?PR?FUN44?TM1629
  +--> ?PR?FUN45?TM1629
  +--> ?PR?FUN46?TM1629
  +--> ?PR?FUN47?TM1629
  +--> ?PR?FUN48?TM1629
  +--> ?PR?FUN49?TM1629
  +--> ?PR?FUN50?TM1629
  +--> ?PR?FUN51?TM1629
  +--> ?PR?FUN52?TM1629
  +--> ?PR?FUN53?TM1629
  +--> ?PR?FUN54?TM1629
  +--> ?PR?FUN55?TM1629
  +--> ?PR?FUN56?TM1629
  +--> ?PR?FUN57?TM1629
  +--> ?PR?FUN58?TM1629
  +--> ?PR?FUN59?TM1629
  +--> ?PR?FUN60?TM1629
  +--> ?PR?FUN61?TM1629
  +--> ?PR?FUN62?TM1629
BL51 BANKED LINKER/LOCATER V6.22                                                      04/11/2016  14:38:45  PAGE 12


  +--> ?PR?FUN63?TM1629
  +--> ?PR?FUN64?TM1629
  +--> ?PR?FUN65?TM1629
  +--> ?PR?FUN66?TM1629
  +--> ?PR?FUN67?TM1629
  +--> ?PR?FUN68?TM1629
  +--> ?PR?FUN69?TM1629
  +--> ?PR?FUN70?TM1629
  +--> ?PR?FUN71?TM1629
  +--> ?PR?FUN72?TM1629
  +--> ?PR?FUN73?TM1629
  +--> ?PR?FUN74?TM1629
  +--> ?PR?FUN75?TM1629
  +--> ?PR?FUN76?TM1629
  +--> ?PR?FUN77?TM1629
  +--> ?PR?FUN78?TM1629
  +--> ?PR?FUN79?TM1629
  +--> ?PR?FUN80?TM1629
  +--> ?PR?FUN81?TM1629
  +--> ?PR?FUN82?TM1629
  +--> ?PR?FUN83?TM1629
  +--> ?PR?FUN84?TM1629
  +--> ?PR?FUN85?TM1629
  +--> ?PR?FUN86?TM1629
  +--> ?PR?FUN87?TM1629
  +--> ?PR?FUN88?TM1629
  +--> ?PR?FUN89?TM1629
  +--> ?PR?FUN90?TM1629
  +--> ?PR?FUN91?TM1629
  +--> ?PR?FUN92?TM1629
  +--> ?PR?FUN93?TM1629
  +--> ?PR?FUN94?TM1629
  +--> ?PR?FUN95?TM1629
  +--> ?PR?FUN96?TM1629
  +--> ?PR?FUN97?TM1629
  +--> ?PR?FUN98?TM1629
  +--> ?PR?FUN99?TM1629
  +--> ?PR?FUN100?TM1629
  +--> ?PR?FUN101?TM1629
  +--> ?PR?FUN102?TM1629
  +--> ?PR?FUN103?TM1629
  +--> ?PR?FUN104?TM1629
  +--> ?PR?FUN105?TM1629
  +--> ?PR?FUN106?TM1629

?PR?FUN0?TM1629                                  -----    -----
  +--> ?PR?RETURN_TWO_MENU_FC_E1?KEY
  +--> ?PR?TM1629_AWAIT?TM1629
  +--> ?PR?DISPLAY_TIME?TM1629
  +--> ?PR?RETURN_TWO_MENU_FB_E1?KEY
  +--> ?PR?TM1629_DISPLAY_BUFF_CLEAR?TM1629

?PR?TM1629_AWAIT?TM1629                          -----    -----
  +--> ?PR?RETURN_AWAIT_NUMBER_TABLE?TIMER
  +--> ?PR?TM1629_CLEAR?TM1629
  +--> ?PR?DISPLAY?TM1629
  +--> ?PR?_SET_AWAIT_NUMBER_TABLE?TIMER
BL51 BANKED LINKER/LOCATER V6.22                                                      04/11/2016  14:38:45  PAGE 13



?PR?DISPLAY_TIME?TM1629                          -----    -----
  +--> ?PR?RETURN_TWO_MENU_F6_E7?KEY
  +--> ?PR?TM1629_CLEAR?TM1629
  +--> ?PR?DS1302_READ_TIME?DS1302
  +--> ?PR?DISPLAY?TM1629

?PR?DS1302_READ_TIME?DS1302                      -----    -----
  +--> ?PR?_DS1302_READ_BYTE?DS1302

?PR?FUN1?TM1629                                  -----    -----
  +--> ?PR?_TM1629_F?TM1629

?PR?FUN2?TM1629                                  -----    -----
  +--> ?PR?_TM1629_F?TM1629
  +--> ?PR?RETURN_SOUND_TABLE?KEY
  +--> ?PR?RETURN_TWO_MENU_F6_E6?KEY
  +--> ?PR?_GD5800_SELECT_CHAPTER?GD5800
  +--> ?PR?_SET_SOUND_TABLE?KEY

?PR?FUN3?TM1629                                  -----    -----
  +--> ?PR?_TM1629_F?TM1629
  +--> ?PR?RETURN_SOUND_TABLE?KEY
  +--> ?PR?RETURN_TWO_MENU_F6_E6?KEY
  +--> ?PR?_GD5800_SELECT_CHAPTER_NEW?GD5800
  +--> ?PR?_SET_SOUND_TABLE?KEY

?PR?FUN4?TM1629                                  -----    -----
  +--> ?PR?_TM1629_F?TM1629
  +--> ?PR?RETURN_SOUND_TABLE?KEY
  +--> ?PR?RETURN_TWO_MENU_F6_E6?KEY
  +--> ?PR?_GD5800_SELECT_CHAPTER_NEW?GD5800
  +--> ?PR?_SET_SOUND_TABLE?KEY

?PR?FUN5?TM1629                                  -----    -----
  +--> ?PR?_TM1629_F?TM1629
  +--> ?PR?RETURN_SOUND_TABLE?KEY
  +--> ?PR?RETURN_TWO_MENU_F6_E6?KEY
  +--> ?PR?_GD5800_SELECT_CHAPTER_NEW?GD5800
  +--> ?PR?_SET_SOUND_TABLE?KEY

?PR?FUN6?TM1629                                  -----    -----
  +--> ?PR?_TM1629_F?TM1629
  +--> ?PR?RETURN_SOUND_TABLE?KEY
  +--> ?PR?RETURN_TWO_MENU_F6_E6?KEY
  +--> ?PR?_GD5800_SELECT_CHAPTER_NEW?GD5800
  +--> ?PR?_SET_SOUND_TABLE?KEY

?PR?FUN7?TM1629                                  -----    -----
  +--> ?PR?_TM1629_F?TM1629
  +--> ?PR?RETURN_SOUND_TABLE?KEY
  +--> ?PR?RETURN_TWO_MENU_F6_E6?KEY
  +--> ?PR?_GD5800_SELECT_CHAPTER_NEW?GD5800
  +--> ?PR?_SET_SOUND_TABLE?KEY

?PR?FUN8?TM1629                                  -----    -----
  +--> ?PR?_TM1629_F?TM1629
BL51 BANKED LINKER/LOCATER V6.22                                                      04/11/2016  14:38:45  PAGE 14


  +--> ?PR?RETURN_SOUND_TABLE?KEY
  +--> ?PR?RETURN_TWO_MENU_F6_E6?KEY
  +--> ?PR?_GD5800_SELECT_CHAPTER_NEW?GD5800
  +--> ?PR?_SET_SOUND_TABLE?KEY

?PR?FUN9?TM1629                                  -----    -----
  +--> ?PR?_TM1629_F?TM1629
  +--> ?PR?RETURN_SOUND_TABLE?KEY
  +--> ?PR?RETURN_TWO_MENU_F6_E6?KEY
  +--> ?PR?_GD5800_SELECT_CHAPTER_NEW?GD5800
  +--> ?PR?_SET_SOUND_TABLE?KEY

?PR?FUN10?TM1629                                 -----    -----
  +--> ?PR?_TM1629_F?TM1629
  +--> ?PR?RETURN_SOUND_TABLE?KEY
  +--> ?PR?RETURN_TWO_MENU_F6_E6?KEY
  +--> ?PR?_GD5800_SELECT_CHAPTER_NEW?GD5800
  +--> ?PR?_SET_SOUND_TABLE?KEY

?PR?FUN11?TM1629                                 -----    -----
  +--> ?PR?_TM1629_F?TM1629

?PR?FUN12?TM1629                                 -----    -----
  +--> ?PR?_TM1629_F?TM1629

?PR?FUN13?TM1629                                 -----    -----
  +--> ?PR?_TM1629_F?TM1629

?PR?FUN14?TM1629                                 -----    -----
  +--> ?PR?_TM1629_F?TM1629
  +--> ?PR?_SET_FD_TABLE?TIMER

?PR?FUN15?TM1629                                 -----    -----
  +--> ?PR?RETURN_AWAIT_NUMBER_TABLE?TIMER
  +--> ?PR?DISPLAY_TIME?TM1629
  +--> ?PR?_SET_AWAIT_NUMBER_TABLE?TIMER
  +--> ?PR?RETURN_TWO_MENU_F6_E7?KEY
  +--> ?PR?DISPLAY?TM1629
  +--> ?PR?DS1302_WRITE_TIME?DS1302

?PR?DS1302_WRITE_TIME?DS1302                     -----    -----
  +--> ?PR?_DS1302_WRITE_BYTE?DS1302

?PR?FUN16?TM1629                                 -----    -----
  +--> ?PR?RETURN_AWAIT_NUMBER_TABLE?TIMER
  +--> ?PR?DISPLAY_TIME?TM1629
  +--> ?PR?_SET_AWAIT_NUMBER_TABLE?TIMER
  +--> ?PR?RETURN_TWO_MENU_F6_E7?KEY
  +--> ?PR?DISPLAY?TM1629
  +--> ?PR?DS1302_WRITE_TIME?DS1302

?PR?FUN17?TM1629                                 -----    -----
  +--> ?PR?RETURN_AWAIT_NUMBER_TABLE?TIMER
  +--> ?PR?DISPLAY_TIME?TM1629
  +--> ?PR?_SET_AWAIT_NUMBER_TABLE?TIMER
  +--> ?PR?RETURN_TWO_MENU_F6_E7?KEY
  +--> ?PR?DISPLAY?TM1629
BL51 BANKED LINKER/LOCATER V6.22                                                      04/11/2016  14:38:45  PAGE 15


  +--> ?PR?DS1302_WRITE_TIME?DS1302

?PR?FUN18?TM1629                                 -----    -----
  +--> ?PR?RETURN_AWAIT_NUMBER_TABLE?TIMER
  +--> ?PR?DISPLAY_TIME?TM1629
  +--> ?PR?_SET_AWAIT_NUMBER_TABLE?TIMER
  +--> ?PR?DISPLAY?TM1629
  +--> ?PR?DS1302_WRITE_TIME?DS1302

?PR?FUN19?TM1629                                 -----    -----
  +--> ?PR?RETURN_AWAIT_NUMBER_TABLE?TIMER
  +--> ?PR?DISPLAY_TIME?TM1629
  +--> ?PR?_SET_AWAIT_NUMBER_TABLE?TIMER
  +--> ?PR?DISPLAY?TM1629
  +--> ?PR?DS1302_WRITE_TIME?DS1302

?PR?FUN20?TM1629                                 -----    -----
  +--> ?PR?RETURN_TWO_MENU_FC_E1?KEY
  +--> ?PR?_SET_FUNC_INDEX?KEY
  +--> ?PR?RETURN_AWAIT_NUMBER_TABLE?TIMER
  +--> ?PR?DISPLAY_TIME?TM1629
  +--> ?PR?_SET_AWAIT_NUMBER_TABLE?TIMER
  +--> ?PR?DISPLAY?TM1629
  +--> ?PR?DS1302_WRITE_TIME?DS1302

?PR?FUN21?TM1629                                 -----    -----
  +--> ?PR?_TM1629_E?TM1629

?PR?FUN22?TM1629                                 -----    -----
  +--> ?PR?_TM1629_E?TM1629

?PR?FUN23?TM1629                                 -----    -----
  +--> ?PR?_TM1629_E?TM1629

?PR?FUN24?TM1629                                 -----    -----
  +--> ?PR?_TM1629_E?TM1629

?PR?FUN25?TM1629                                 -----    -----
  +--> ?PR?_TM1629_E?TM1629

?PR?FUN26?TM1629                                 -----    -----
  +--> ?PR?_TM1629_E?TM1629

?PR?FUN27?TM1629                                 -----    -----
  +--> ?PR?_TM1629_E?TM1629

?PR?FUN28?TM1629                                 -----    -----
  +--> ?PR?_TM1629_E?TM1629

?PR?FUN29?TM1629                                 -----    -----
  +--> ?PR?_TM1629_E?TM1629

?PR?FUN30?TM1629                                 -----    -----
  +--> ?PR?_TM1629_E?TM1629

?PR?FUN31?TM1629                                 -----    -----
  +--> ?PR?RETURN_TWO_MENU_F4_E1?KEY
BL51 BANKED LINKER/LOCATER V6.22                                                      04/11/2016  14:38:45  PAGE 16


  +--> ?PR?_SHOW_TWO_NUMBER?TM1629

?PR?_SHOW_TWO_NUMBER?TM1629                      -----    -----
  +--> ?PR?TM1629_CLEAR?TM1629
  +--> ?PR?DISPLAY?TM1629

?PR?FUN32?TM1629                                 -----    -----
  +--> ?PR?RETURN_TWO_MENU_F5_E1?KEY
  +--> ?PR?_SHOW_TWO_NUMBER?TM1629

?PR?FUN33?TM1629                                 -----    -----
  +--> ?PR?_TM1629_E?TM1629

?PR?FUN34?TM1629                                 -----    -----
  +--> ?PR?_TM1629_E?TM1629

?PR?FUN35?TM1629                                 -----    -----
  +--> ?PR?_TM1629_E?TM1629

?PR?FUN36?TM1629                                 -----    -----
  +--> ?PR?_TM1629_E?TM1629

?PR?FUN37?TM1629                                 -----    -----
  +--> ?PR?_TM1629_E?TM1629

?PR?FUN38?TM1629                                 -----    -----
  +--> ?PR?_TM1629_E?TM1629

?PR?FUN39?TM1629                                 -----    -----
  +--> ?PR?_TM1629_E?TM1629

?PR?FUN40?TM1629                                 -----    -----
  +--> ?PR?_TM1629_E?TM1629

?PR?FUN41?TM1629                                 -----    -----
  +--> ?PR?_TM1629_E?TM1629

?PR?FUN42?TM1629                                 -----    -----
  +--> ?PR?_TM1629_E?TM1629
  +--> ?PR?RETURN_TWO_MENU_F8_E1?KEY

?PR?FUN43?TM1629                                 -----    -----
  +--> ?PR?_TM1629_E?TM1629

?PR?FUN44?TM1629                                 -----    -----
  +--> ?PR?_TM1629_E?TM1629

?PR?FUN45?TM1629                                 -----    -----
  +--> ?PR?_TM1629_E?TM1629

?PR?FUN46?TM1629                                 -----    -----
  +--> ?PR?RETURN_RF_TRANS_COUNT?EV1527
  +--> ?PR?_SHOW_THREE_NUMBER?TM1629

?PR?_SHOW_THREE_NUMBER?TM1629                    -----    -----
  +--> ?PR?TM1629_CLEAR?TM1629
  +--> ?PR?DISPLAY?TM1629
BL51 BANKED LINKER/LOCATER V6.22                                                      04/11/2016  14:38:45  PAGE 17



?PR?FUN47?TM1629                                 -----    -----
  +--> ?PR?RETURN_TWO_MENU_FB_E1?KEY
  +--> ?PR?_SHOW_ONE_NUMBER?TM1629

?PR?FUN48?TM1629                                 -----    -----
  +--> ?PR?RETURN_TWO_MENU_FC_E1?KEY
  +--> ?PR?_SHOW_ONE_NUMBER?TM1629

?PR?FUN49?TM1629                                 04D0H    0001H
  +--> ?PR?RETURN_FD_TABLE?TIMER
  +--> ?PR?_DISPLAY_LIGHT?TM1629
  +--> ?PR?_GD5800_SELECT_CHAPTER?GD5800
  +--> ?PR?TM1629_CLEAR?TM1629
  +--> ?PR?DISPLAY?TM1629

?PR?_DISPLAY_LIGHT?TM1629                        -----    -----
  +--> ?PR?_SEND_COMMAND?TM1629
  +--> ?PR?_WRITEDATATO1629?TM1629
  +--> ?PR?_SEND_COMMAND_2?TM1629
  +--> ?PR?_WRITEDATATO1629_2?TM1629
  +--> ?PR?_SEND_COMMAND_3?TM1629
  +--> ?PR?_WRITEDATATO1629_3?TM1629

?PR?FUN50?TM1629                                 -----    -----
  +--> ?PR?RETURN_AWAIT_NUMBER_TABLE?TIMER
  +--> ?PR?_SHOW_FOUR_NUMBER?TM1629
  +--> ?PR?_SET_AWAIT_NUMBER_TABLE?TIMER
  +--> ?PR?DISPLAY?TM1629

?PR?_SHOW_FOUR_NUMBER?TM1629                     -----    -----
  +--> ?PR?TM1629_CLEAR?TM1629
  +--> ?PR?DISPLAY?TM1629

?PR?FUN51?TM1629                                 -----    -----
  +--> ?PR?RETURN_AWAIT_NUMBER_TABLE?TIMER
  +--> ?PR?_SHOW_FOUR_NUMBER?TM1629
  +--> ?PR?_SET_AWAIT_NUMBER_TABLE?TIMER
  +--> ?PR?DISPLAY?TM1629

?PR?FUN52?TM1629                                 -----    -----
  +--> ?PR?RETURN_AWAIT_NUMBER_TABLE?TIMER
  +--> ?PR?_SHOW_FOUR_NUMBER?TM1629
  +--> ?PR?_SET_AWAIT_NUMBER_TABLE?TIMER
  +--> ?PR?DISPLAY?TM1629

?PR?FUN53?TM1629                                 -----    -----
  +--> ?PR?RETURN_AWAIT_NUMBER_TABLE?TIMER
  +--> ?PR?_SHOW_FOUR_NUMBER?TM1629
  +--> ?PR?_SET_AWAIT_NUMBER_TABLE?TIMER
  +--> ?PR?DISPLAY?TM1629

?PR?FUN54?TM1629                                 -----    -----
  +--> ?PR?RETURN_AWAIT_NUMBER_TABLE?TIMER
  +--> ?PR?_SHOW_FOUR_NUMBER?TM1629
  +--> ?PR?_SET_AWAIT_NUMBER_TABLE?TIMER
  +--> ?PR?DISPLAY?TM1629
BL51 BANKED LINKER/LOCATER V6.22                                                      04/11/2016  14:38:45  PAGE 18



?PR?FUN55?TM1629                                 -----    -----
  +--> ?PR?RETURN_AWAIT_NUMBER_TABLE?TIMER
  +--> ?PR?_SHOW_FOUR_NUMBER?TM1629
  +--> ?PR?_SET_AWAIT_NUMBER_TABLE?TIMER
  +--> ?PR?DISPLAY?TM1629

?PR?FUN56?TM1629                                 -----    -----
  +--> ?PR?RETURN_AWAIT_NUMBER_TABLE?TIMER
  +--> ?PR?_SHOW_FOUR_NUMBER?TM1629
  +--> ?PR?_SET_AWAIT_NUMBER_TABLE?TIMER
  +--> ?PR?DISPLAY?TM1629

?PR?FUN57?TM1629                                 -----    -----
  +--> ?PR?RETURN_AWAIT_NUMBER_TABLE?TIMER
  +--> ?PR?_SHOW_FOUR_NUMBER?TM1629
  +--> ?PR?_SET_AWAIT_NUMBER_TABLE?TIMER
  +--> ?PR?DISPLAY?TM1629

?PR?FUN58?TM1629                                 -----    -----
  +--> ?PR?RETURN_AWAIT_NUMBER_TABLE?TIMER
  +--> ?PR?_SHOW_FOUR_NUMBER?TM1629
  +--> ?PR?_SET_AWAIT_NUMBER_TABLE?TIMER
  +--> ?PR?DISPLAY?TM1629

?PR?FUN59?TM1629                                 -----    -----
  +--> ?PR?RETURN_AWAIT_NUMBER_TABLE?TIMER
  +--> ?PR?_SHOW_FOUR_NUMBER?TM1629
  +--> ?PR?_SET_AWAIT_NUMBER_TABLE?TIMER
  +--> ?PR?DISPLAY?TM1629

?PR?FUN60?TM1629                                 -----    -----
  +--> ?PR?RETURN_AWAIT_NUMBER_TABLE?TIMER
  +--> ?PR?_SHOW_FOUR_NUMBER?TM1629
  +--> ?PR?_SET_AWAIT_NUMBER_TABLE?TIMER
  +--> ?PR?DISPLAY?TM1629

?PR?FUN61?TM1629                                 -----    -----
  +--> ?PR?RETURN_AWAIT_NUMBER_TABLE?TIMER
  +--> ?PR?_SHOW_FOUR_NUMBER?TM1629
  +--> ?PR?_SET_AWAIT_NUMBER_TABLE?TIMER
  +--> ?PR?DISPLAY?TM1629

?PR?FUN62?TM1629                                 -----    -----
  +--> ?PR?RETURN_AWAIT_NUMBER_TABLE?TIMER
  +--> ?PR?_SHOW_FOUR_NUMBER?TM1629
  +--> ?PR?_SET_AWAIT_NUMBER_TABLE?TIMER
  +--> ?PR?DISPLAY?TM1629

?PR?FUN63?TM1629                                 -----    -----
  +--> ?PR?RETURN_AWAIT_NUMBER_TABLE?TIMER
  +--> ?PR?_SHOW_FOUR_NUMBER?TM1629
  +--> ?PR?_SET_AWAIT_NUMBER_TABLE?TIMER
  +--> ?PR?DISPLAY?TM1629

?PR?FUN64?TM1629                                 -----    -----
  +--> ?PR?RETURN_AWAIT_NUMBER_TABLE?TIMER
BL51 BANKED LINKER/LOCATER V6.22                                                      04/11/2016  14:38:45  PAGE 19


  +--> ?PR?_SHOW_FOUR_NUMBER?TM1629
  +--> ?PR?_SET_AWAIT_NUMBER_TABLE?TIMER
  +--> ?PR?DISPLAY?TM1629

?PR?FUN65?TM1629                                 -----    -----
  +--> ?PR?RETURN_AWAIT_NUMBER_TABLE?TIMER
  +--> ?PR?_SHOW_FOUR_NUMBER?TM1629
  +--> ?PR?_SET_AWAIT_NUMBER_TABLE?TIMER
  +--> ?PR?DISPLAY?TM1629

?PR?FUN66?TM1629                                 -----    -----
  +--> ?PR?RETURN_AWAIT_NUMBER_TABLE?TIMER
  +--> ?PR?_SHOW_FOUR_NUMBER?TM1629
  +--> ?PR?_SET_AWAIT_NUMBER_TABLE?TIMER
  +--> ?PR?DISPLAY?TM1629

?PR?FUN67?TM1629                                 -----    -----
  +--> ?PR?RETURN_AWAIT_NUMBER_TABLE?TIMER
  +--> ?PR?_SHOW_FOUR_NUMBER?TM1629
  +--> ?PR?_SET_AWAIT_NUMBER_TABLE?TIMER
  +--> ?PR?DISPLAY?TM1629

?PR?FUN68?TM1629                                 -----    -----
  +--> ?PR?RETURN_AWAIT_NUMBER_TABLE?TIMER
  +--> ?PR?_SHOW_FOUR_NUMBER?TM1629
  +--> ?PR?_SET_AWAIT_NUMBER_TABLE?TIMER
  +--> ?PR?DISPLAY?TM1629

?PR?FUN69?TM1629                                 -----    -----
  +--> ?PR?RETURN_AWAIT_NUMBER_TABLE?TIMER
  +--> ?PR?_SHOW_FOUR_NUMBER?TM1629
  +--> ?PR?_SET_AWAIT_NUMBER_TABLE?TIMER
  +--> ?PR?DISPLAY?TM1629

?PR?FUN70?TM1629                                 -----    -----
  +--> ?PR?RETURN_AWAIT_NUMBER_TABLE?TIMER
  +--> ?PR?_SHOW_FOUR_NUMBER?TM1629
  +--> ?PR?_SET_AWAIT_NUMBER_TABLE?TIMER
  +--> ?PR?DISPLAY?TM1629

?PR?FUN71?TM1629                                 -----    -----
  +--> ?PR?RETURN_AWAIT_NUMBER_TABLE?TIMER
  +--> ?PR?_SHOW_FOUR_NUMBER?TM1629
  +--> ?PR?_SET_AWAIT_NUMBER_TABLE?TIMER
  +--> ?PR?DISPLAY?TM1629

?PR?FUN72?TM1629                                 -----    -----
  +--> ?PR?RETURN_AWAIT_NUMBER_TABLE?TIMER
  +--> ?PR?_SHOW_FOUR_NUMBER?TM1629
  +--> ?PR?_SET_AWAIT_NUMBER_TABLE?TIMER
  +--> ?PR?DISPLAY?TM1629

?PR?FUN73?TM1629                                 -----    -----
  +--> ?PR?RETURN_AWAIT_NUMBER_TABLE?TIMER
  +--> ?PR?_SHOW_FOUR_NUMBER?TM1629
  +--> ?PR?_SET_AWAIT_NUMBER_TABLE?TIMER
  +--> ?PR?DISPLAY?TM1629
BL51 BANKED LINKER/LOCATER V6.22                                                      04/11/2016  14:38:45  PAGE 20



?PR?FUN74?TM1629                                 -----    -----
  +--> ?PR?RETURN_AWAIT_NUMBER_TABLE?TIMER
  +--> ?PR?_SHOW_FOUR_NUMBER?TM1629
  +--> ?PR?_SET_AWAIT_NUMBER_TABLE?TIMER
  +--> ?PR?DISPLAY?TM1629

?PR?FUN75?TM1629                                 -----    -----
  +--> ?PR?RETURN_AWAIT_NUMBER_TABLE?TIMER
  +--> ?PR?_SHOW_FOUR_NUMBER?TM1629
  +--> ?PR?_SET_AWAIT_NUMBER_TABLE?TIMER
  +--> ?PR?DISPLAY?TM1629

?PR?FUN76?TM1629                                 -----    -----
  +--> ?PR?RETURN_AWAIT_NUMBER_TABLE?TIMER
  +--> ?PR?_SHOW_FOUR_NUMBER?TM1629
  +--> ?PR?_SET_AWAIT_NUMBER_TABLE?TIMER
  +--> ?PR?DISPLAY?TM1629

?PR?FUN77?TM1629                                 -----    -----
  +--> ?PR?RETURN_AWAIT_NUMBER_TABLE?TIMER
  +--> ?PR?_SHOW_FOUR_NUMBER?TM1629
  +--> ?PR?_SET_AWAIT_NUMBER_TABLE?TIMER
  +--> ?PR?DISPLAY?TM1629

?PR?FUN78?TM1629                                 -----    -----
  +--> ?PR?RETURN_AWAIT_NUMBER_TABLE?TIMER
  +--> ?PR?_SHOW_FOUR_NUMBER?TM1629
  +--> ?PR?_SET_AWAIT_NUMBER_TABLE?TIMER
  +--> ?PR?DISPLAY?TM1629

?PR?FUN79?TM1629                                 -----    -----
  +--> ?PR?RETURN_AWAIT_NUMBER_TABLE?TIMER
  +--> ?PR?_SHOW_FOUR_NUMBER?TM1629
  +--> ?PR?_SET_AWAIT_NUMBER_TABLE?TIMER
  +--> ?PR?DISPLAY?TM1629

?PR?FUN80?TM1629                                 -----    -----
  +--> ?PR?RETURN_AWAIT_NUMBER_TABLE?TIMER
  +--> ?PR?_SHOW_FOUR_NUMBER?TM1629
  +--> ?PR?_SET_AWAIT_NUMBER_TABLE?TIMER
  +--> ?PR?DISPLAY?TM1629

?PR?FUN81?TM1629                                 -----    -----
  +--> ?PR?RETURN_AWAIT_NUMBER_TABLE?TIMER
  +--> ?PR?_SHOW_FOUR_NUMBER?TM1629
  +--> ?PR?_SET_AWAIT_NUMBER_TABLE?TIMER
  +--> ?PR?DISPLAY?TM1629

?PR?FUN82?TM1629                                 -----    -----
  +--> ?PR?RETURN_TWO_MENU_F3_E1?KEY
  +--> ?PR?_SHOW_ONE_NUMBER?TM1629

?PR?FUN83?TM1629                                 -----    -----
  +--> ?PR?RETURN_TWO_MENU_F3_E2?KEY
  +--> ?PR?_SHOW_TWO_NUMBER?TM1629

BL51 BANKED LINKER/LOCATER V6.22                                                      04/11/2016  14:38:45  PAGE 21


?PR?FUN84?TM1629                                 -----    -----
  +--> ?PR?RETURN_TWO_MENU_F6_E1?KEY
  +--> ?PR?_SHOW_ONE_NUMBER?TM1629

?PR?FUN85?TM1629                                 -----    -----
  +--> ?PR?RETURN_TWO_MENU_F6_E2?KEY
  +--> ?PR?_SHOW_ONE_NUMBER?TM1629

?PR?FUN86?TM1629                                 -----    -----
  +--> ?PR?RETURN_TWO_MENU_F6_E3?KEY
  +--> ?PR?_SHOW_ONE_NUMBER?TM1629

?PR?FUN87?TM1629                                 04D0H    0001H
  +--> ?PR?RETURN_TWO_MENU_F6_E4?KEY
  +--> ?PR?_GD5800_SOUND_VOLUME?GD5800
  +--> ?PR?_SHOW_ONE_NUMBER?TM1629

?PR?FUN88?TM1629                                 -----    -----
  +--> ?PR?RETURN_TWO_MENU_F6_E5?KEY
  +--> ?PR?_SHOW_ONE_NUMBER?TM1629

?PR?FUN89?TM1629                                 -----    -----
  +--> ?PR?RETURN_TWO_MENU_F7_E1?KEY
  +--> ?PR?_SHOW_ONE_NUMBER?TM1629
  +--> ?PR?SHOW_OFF?TM1629

?PR?SHOW_OFF?TM1629                              -----    -----
  +--> ?PR?TM1629_CLEAR?TM1629
  +--> ?PR?DISPLAY?TM1629

?PR?FUN90?TM1629                                 -----    -----
  +--> ?PR?RETURN_TWO_MENU_F7_E2?KEY
  +--> ?PR?_SHOW_ONE_NUMBER?TM1629

?PR?FUN91?TM1629                                 -----    -----
  +--> ?PR?RETURN_TWO_MENU_F7_E3?KEY
  +--> ?PR?_SHOW_ONE_NUMBER?TM1629

?PR?FUN92?TM1629                                 -----    -----
  +--> ?PR?RETURN_TWO_MENU_F7_E4?KEY
  +--> ?PR?_SHOW_ONE_NUMBER?TM1629

?PR?FUN93?TM1629                                 04D0H    0001H
  +--> ?PR?RETURN_TWO_MENU_F8_E1?KEY
  +--> ?PR?_SHOW_ONE_NUMBER?TM1629
  +--> ?PR?DELETE_ALL_DATA?AT24C256
  +--> ?PR?RETURN_SOUND_TABLE?KEY
  +--> ?PR?_GD5800_SELECT_CHAPTER?GD5800
  +--> ?PR?_SET_SOUND_TABLE?KEY

?PR?FUN94?TM1629                                 04D0H    0001H
  +--> ?PR?RETURN_TWO_MENU_F8_E2?KEY
  +--> ?PR?_SHOW_TWO_NUMBER?TM1629
  +--> ?PR?RETURN_SOUND_TABLE?KEY
  +--> ?PR?_GD5800_SELECT_CHAPTER_NEW?GD5800
  +--> ?PR?RETURN_TWO_MENU_SET_SUCCESS?DECODER
  +--> ?PR?_SET_TWO_MENU_SET_SUCCESS?DECODER
BL51 BANKED LINKER/LOCATER V6.22                                                      04/11/2016  14:38:45  PAGE 22



?PR?FUN95?TM1629                                 04D0H    0002H
  +--> ?PR?RETURN_TWO_MENU_F6_E1?KEY
  +--> ?PR?RETURN_TWO_MENU_F6_E8?KEY
  +--> ?PR?_GD5800_SELECT_CHAPTER?GD5800
  +--> ?PR?RETURN_AWAIT_NUMBER_TABLE?TIMER
  +--> ?PR?_SET_AWAIT_NUMBER_TABLE?TIMER

?PR?FUN96?TM1629                                 -----    -----
  +--> ?PR?_TM1629_E?TM1629

?PR?FUN97?TM1629                                 -----    -----
  +--> ?PR?RETURN_TWO_MENU_F6_E6?KEY
  +--> ?PR?_SHOW_ONE_NUMBER?TM1629

?PR?FUN98?TM1629                                 -----    -----
  +--> ?PR?_TM1629_E?TM1629

?PR?FUN99?TM1629                                 -----    -----
  +--> ?PR?RETURN_TWO_MENU_F6_E7?KEY
  +--> ?PR?_SHOW_ONE_NUMBER?TM1629

?PR?FUN100?TM1629                                -----    -----
  +--> ?PR?_TM1629_E?TM1629

?PR?FUN101?TM1629                                -----    -----
  +--> ?PR?RETURN_TWO_MENU_F6_E8?KEY
  +--> ?PR?_SHOW_ONE_NUMBER?TM1629

?PR?FUN102?TM1629                                -----    -----
  +--> ?PR?_TM1629_F?TM1629

?PR?FUN103?TM1629                                -----    -----
  +--> ?PR?_TM1629_E?TM1629

?PR?FUN104?TM1629                                -----    -----
  +--> ?PR?_TM1629_E?TM1629

?PR?FUN105?TM1629                                04D0H    0009H
  +--> ?PR?RETURN_AWAIT_NUMBER_TABLE?TIMER
  +--> ?PR?TM1629_CLEAR?TM1629
  +--> ?PR?DISPLAY?TM1629
  +--> ?PR?_SET_AWAIT_NUMBER_TABLE?TIMER
  +--> ?PR?_IRCVSTR?AT24C256
  +--> ?PR?_USART1_SENDDATA?USART

?PR?FUN106?TM1629                                -----    -----
  +--> ?PR?_ISENDSTR?AT24C256
  +--> ?PR?_USART1_SENDDATA?USART
  +--> ?PR?TM1629_CLEAR?TM1629
  +--> ?PR?DISPLAY?TM1629
  +--> ?PR?RETURN_AWAIT_NUMBER_TABLE?TIMER
  +--> ?PR?_SET_AWAIT_NUMBER_TABLE?TIMER

?PR?LOGOUT?TM1629                                04D0H    0001H
  +--> ?PR?RETURN_TWO_MENU_F3_E2?KEY
  +--> ?PR?_MCURAM_TO_MCURAM_UP?TM1629
BL51 BANKED LINKER/LOCATER V6.22                                                      04/11/2016  14:38:45  PAGE 23


  +--> ?PR?TM1629_LOAD?TM1629
  +--> ?PR?DISPLAY?TM1629
  +--> ?PR?_SET_FUNC_INDEX?KEY

?PR?TM1629_LOAD?TM1629                           -----    -----
  +--> ?PR?TM1629_CLEAR?TM1629
  +--> ?PR?_MCURAM_TO_DISPLAYRAM?TM1629

?PR?_MCURAM_TO_DISPLAYRAM?TM1629                 0506H    0006H

?PR?CYCLEUP?TM1629                               04D0H    0007H
  +--> ?CO?TM1629
  +--> ?PR?RETURN_TWO_MENU_F3_E2?KEY
  +--> ?PR?_MCURAM_TO_MCURAM_UP?TM1629
  +--> ?PR?TM1629_LOAD?TM1629
  +--> ?PR?DISPLAY?TM1629

?PR?CYCLEDOWN?TM1629                             04D0H    0008H
  +--> ?CO?TM1629
  +--> ?PR?RETURN_TWO_MENU_F3_E2?KEY
  +--> ?PR?_MCURAM_TO_MCURAM_DOWN?TM1629
  +--> ?PR?TM1629_LOAD?TM1629
  +--> ?PR?DISPLAY?TM1629

?PR?DECODERPROCESS?DECODER                       04CFH    0029H
  +--> ?PR?RETURN_FUNC_INDEX?KEY
  +--> ?PR?RETURN_TWO_MENU_F8_E1?KEY
  +--> ?PR?RETURN_TWO_MENU_F8_E2?KEY
  +--> ?PR?RETURN_TWO_MENU_F3_E1?KEY
  +--> ?PR?RETURN_TWO_MENU_F3_E2?KEY
  +--> ?PR?RETURN_TWO_MENU_F7_E1?KEY
  +--> ?PR?RETURN_TWO_MENU_F6_E1?KEY
  +--> ?PR?RETURN_TWO_MENU_F6_E2?KEY
  +--> ?PR?RECEIVE_RF_DECODER?EV1527
  +--> ?PR?RETURN_AGAIN_RECEIVE_RF_DECODER_F...
  +--> ?PR?_SET_LOGOUT_CYCLE_TABLE?TIMER
  +--> ?PR?_SUBMENUF6_1?GD5800
  +--> ?PR?_CANCEL_FUNTION?TM1629
  +--> ?PR?_MCU_TO_COMPUTER?COM
  +--> ?PR?TM1629_CLEAR?TM1629
  +--> ?PR?_DECODER_TEMP_TO_MCURAM?TM1629
  +--> ?PR?TM1629_LOAD?TM1629
  +--> ?PR?DISPLAY?TM1629
  +--> ?PR?_SET_FUNC_INDEX?KEY
  +--> ?PR?_FIND_RF_EEPROM?AT24C256
  +--> ?PR?RETURN_SECOND_FILTER_TABLE?TIMER
  +--> ?PR?CLEAR_SECOND_FILTER_TIME?TIMER
  +--> ?PR?_SET_SECOND_FILTER_TABLE?TIMER
  +--> ?PR?_SEARCH_FUNTION?TM1629
  +--> ?PR?_MCURAM_TO_MCURAM_DOWN?TM1629
  +--> ?PR?CLEAR_AGAIN_RECEIVE_RF_DECODER_FI...
  +--> ?PR?_REGISTER_CALL_FUNCTION?AT24C256
  +--> ?PR?DELAY10MS?KEY
  +--> ?PR?_REGISTER_HOST_FUNCTION?AT24C256
  +--> ?PR?_REGISTER_ALARM_FUNCTION?AT24C256
  +--> ?PR?_REGISTER_CANCEL_FUNCTION?AT24C256
  +--> ?PR?_SET_SOUND_TABLE?KEY
BL51 BANKED LINKER/LOCATER V6.22                                                      04/11/2016  14:38:45  PAGE 24


  +--> ?PR?_ISENDSTR?AT24C256
  +--> ?PR?LOGOUTPROCESS?TM1629
  +--> ?PR?CYCLEPROCESS?TM1629

?PR?RECEIVE_RF_DECODER?EV1527                    04F8H    0009H
  +--> ?PR?RETURN_FUNC_INDEX?KEY
  +--> ?PR?CLEAR_AGAIN_AND_AGAIN_TIME?TIMER
  +--> ?PR?CLEAR_RETURN_STANDBY_TIME?TIMER
  +--> ?PR?_FIND_RF_EEPROM_HOST?AT24C256
  +--> ?PR?_SET_SOUND_TABLE?KEY

?PR?_FIND_RF_EEPROM_HOST?AT24C256                0501H    0013H
  +--> ?PR?_IRCVSTR?AT24C256
  +--> ?PR?RETURN_TWO_MENU_F8_E1?KEY

?PR?_SUBMENUF6_1?GD5800                          0506H    0011H
  +--> ?PR?RETURN_TWO_MENU_F7_E1?KEY
  +--> ?PR?RETURN_TWO_MENU_F6_E7?KEY
  +--> ?PR?_GD5800_SELECT_CHAPTER?GD5800
  +--> ?PR?_SUBMENUF6_1_VOICESELECT?GD5800

?PR?_SUBMENUF6_1_VOICESELECT?GD5800              0517H    0004H
  +--> ?PR?_GD5800_SELECT_CHAPTER?GD5800

?PR?_CANCEL_FUNTION?TM1629                       04F8H    0012H
  +--> ?CO?TM1629
  +--> ?PR?RETURN_TWO_MENU_F3_E2?KEY
  +--> ?PR?GD5800_STOP_MUSIC?GD5800
  +--> ?PR?_MCURAM_TO_MCURAM_UP?TM1629
  +--> ?PR?_SET_FUNC_INDEX?KEY

?PR?_MCU_TO_COMPUTER?COM                         04F8H    000BH
  +--> ?PR?DS1302_READ_TIME?DS1302
  +--> ?PR?_USART1_SENDDATA?USART

?PR?_DECODER_TEMP_TO_MCURAM?TM1629               04F8H    0006H

?PR?_FIND_RF_EEPROM?AT24C256                     04F8H    0007H
  +--> ?PR?_FIND_RF_EEPROM_CANCEL?AT24C256
  +--> ?PR?_FIND_RF_EEPROM_ALARM?AT24C256
  +--> ?PR?_FIND_RF_EEPROM_CALL?AT24C256

?PR?_FIND_RF_EEPROM_CANCEL?AT24C256              04FFH    0013H
  +--> ?PR?_IRCVSTR?AT24C256
  +--> ?PR?RETURN_TWO_MENU_F8_E1?KEY

?PR?_FIND_RF_EEPROM_ALARM?AT24C256               04FFH    0013H
  +--> ?PR?_IRCVSTR?AT24C256
  +--> ?PR?RETURN_TWO_MENU_F8_E1?KEY

?PR?_FIND_RF_EEPROM_CALL?AT24C256                04FFH    0013H
  +--> ?PR?_IRCVSTR?AT24C256
  +--> ?PR?RETURN_TWO_MENU_F8_E1?KEY

?PR?_SEARCH_FUNTION?TM1629                       04F8H    000DH
  +--> ?CO?TM1629
  +--> ?PR?RETURN_TWO_MENU_F3_E2?KEY
BL51 BANKED LINKER/LOCATER V6.22                                                      04/11/2016  14:38:45  PAGE 25


  +--> ?PR?_MCURAM_TO_MCURAM_UP?TM1629

?PR?_REGISTER_CALL_FUNCTION?AT24C256             04F8H    0011H
  +--> ?PR?_IRCVSTR?AT24C256
  +--> ?PR?RETURN_TWO_MENU_F8_E1?KEY
  +--> ?PR?_ISENDSTR?AT24C256
  +--> ?PR?_GD5800_SELECT_CHAPTER_NEW?GD5800

?PR?_REGISTER_HOST_FUNCTION?AT24C256             04F8H    0011H
  +--> ?PR?_IRCVSTR?AT24C256
  +--> ?PR?RETURN_TWO_MENU_F8_E1?KEY
  +--> ?PR?_GD5800_SELECT_CHAPTER?GD5800
  +--> ?PR?_ISENDSTR?AT24C256
  +--> ?PR?_GD5800_SELECT_CHAPTER_NEW?GD5800

?PR?_REGISTER_ALARM_FUNCTION?AT24C256            04F8H    0011H
  +--> ?PR?_IRCVSTR?AT24C256
  +--> ?PR?RETURN_TWO_MENU_F8_E1?KEY
  +--> ?PR?_GD5800_SELECT_CHAPTER?GD5800
  +--> ?PR?_ISENDSTR?AT24C256
  +--> ?PR?_GD5800_SELECT_CHAPTER_NEW?GD5800

?PR?_REGISTER_CANCEL_FUNCTION?AT24C256           04F8H    0011H
  +--> ?PR?_IRCVSTR?AT24C256
  +--> ?PR?RETURN_TWO_MENU_F8_E1?KEY
  +--> ?PR?_GD5800_SELECT_CHAPTER?GD5800
  +--> ?PR?_ISENDSTR?AT24C256
  +--> ?PR?_GD5800_SELECT_CHAPTER_NEW?GD5800

?PR?LOGOUTPROCESS?TM1629                         04F8H    0009H
  +--> ?PR?RETURN_TWO_MENU_F5_E1?KEY
  +--> ?PR?RETURN_TWO_MENU_F4_E1?KEY
  +--> ?PR?RETURN_LOGOUT_CYCLE_TABLE?TIMER
  +--> ?PR?RETURN_TWO_MENU_F3_E2?KEY
  +--> ?PR?RETURN_TWO_MENU_F3_E1?KEY
  +--> ?PR?RETURN_TWO_MENU_F6_E2?KEY
  +--> ?PR?_MCURAM_TO_MCURAM_UP?TM1629
  +--> ?PR?TM1629_LOAD?TM1629
  +--> ?PR?DISPLAY?TM1629
  +--> ?PR?_SET_LOGOUT_CYCLE_TABLE?TIMER
  +--> ?PR?_SET_FUNC_INDEX?KEY
  +--> ?PR?_SUBMENUF6_1?GD5800

?PR?CYCLEPROCESS?TM1629                          04F8H    000EH
  +--> ?CO?TM1629
  +--> ?PR?RETURN_TWO_MENU_F6_E3?KEY
  +--> ?PR?RETURN_TWO_MENU_F6_E1?KEY
  +--> ?PR?RETURN_TWO_MENU_F5_E1?KEY
  +--> ?PR?RETURN_TWO_MENU_F4_E1?KEY
  +--> ?PR?RETURN_LOGOUT_CYCLE_TABLE?TIMER
  +--> ?PR?_MCURAM_TO_MCURAM_DOWN?TM1629
  +--> ?PR?TM1629_LOAD?TM1629
  +--> ?PR?DISPLAY?TM1629
  +--> ?PR?_SET_LOGOUT_CYCLE_TABLE?TIMER
  +--> ?PR?_SUBMENUF6_1?GD5800

?PR?REPLAY_PROCESS?DECODER                       04CFH    0001H
BL51 BANKED LINKER/LOCATER V6.22                                                      04/11/2016  14:38:45  PAGE 26


  +--> ?PR?_SUBMENUF6_1?GD5800
  +--> ?PR?_DELAYMULTI10MS?KEY

?PR?_DELAYMULTI10MS?KEY                          -----    -----
  +--> ?PR?DELAY10MS?KEY

?C_INITSEG                                       -----    -----
  +--> ?CO?USART

*** NEW ROOT ***************************************************

?PR?UART?USART                                   051DH    0001H
  +--> ?PR?RETURN_FUNC_INDEX?KEY
  +--> ?PR?_USART1_SENDDATA?USART

*** NEW ROOT ***************************************************

?PR?TIMER0_ISR?TIMER                             051EH    0002H
  +--> ?PR?RETURN_FUNC_INDEX?KEY
  +--> ?PR?RETURN_TWO_MENU_FC_E1?KEY
  +--> ?PR?RETURN_AGAIN_AND_AGAIN_DECODER_TA...
  +--> ?PR?CLEAR_AGAIN_AND_AGAIN_DECODER_TAB...
  +--> ?PR?_SET_FUNC_INDEX?KEY

*** NEW ROOT ***************************************************

?PR?TIMER1_ISR?TIMER                             -----    -----
  +--> ?PR?RETURN_FUNC_INDEX?KEY
  +--> ?PR?RF_DECODE_MAIN_SJZ_TEST?EV1527
  +--> ?PR?RF_DECODE_MAIN?EV1527

?PR?RF_DECODE_MAIN_SJZ_TEST?EV1527               -----    -----
  +--> ?PR?RF_INI_RECEIVE?EV1527

?PR?RF_DECODE_MAIN?EV1527                        -----    -----
  +--> ?PR?RF_INI_RECEIVE?EV1527



SYMBOL TABLE OF MODULE:  Receiver_keil (?C_STARTUP)

  VALUE           TYPE          NAME
  ----------------------------------

  -------         MODULE        ?C_STARTUP
  C:6020H         SEGMENT       ?C_C51STARTUP
  I:0022H         SEGMENT       ?STACK
  C:0000H         PUBLIC        ?C_STARTUP
  D:00E0H         SYMBOL        ACC
  D:00F0H         SYMBOL        B
  D:0083H         SYMBOL        DPH
  D:0082H         SYMBOL        DPL
  N:0000H         SYMBOL        IBPSTACK
  N:0100H         SYMBOL        IBPSTACKTOP
  N:0080H         SYMBOL        IDATALEN
  C:6023H         SYMBOL        IDATALOOP
  N:0000H         SYMBOL        PBPSTACK
BL51 BANKED LINKER/LOCATER V6.22                                                      04/11/2016  14:38:45  PAGE 27


  N:0100H         SYMBOL        PBPSTACKTOP
  N:0000H         SYMBOL        PDATALEN
  N:0000H         SYMBOL        PDATASTART
  N:0000H         SYMBOL        PPAGE
  N:0000H         SYMBOL        PPAGEENABLE
  D:00A0H         SYMBOL        PPAGE_SFR
  D:0081H         SYMBOL        SP
  C:6020H         SYMBOL        STARTUP1
  N:0000H         SYMBOL        XBPSTACK
  N:0000H         SYMBOL        XBPSTACKTOP
  N:0000H         SYMBOL        XDATALEN
  N:0000H         SYMBOL        XDATASTART
  C:0000H         LINE#         126
  C:6020H         LINE#         133
  C:6022H         LINE#         134
  C:6023H         LINE#         135
  C:6024H         LINE#         136
  C:6026H         LINE#         185
  C:6029H         LINE#         196
  -------         ENDMOD        ?C_STARTUP

  -------         MODULE        MAIN
  C:0000H         SYMBOL        _ICE_DUMMY_
  D:0080H         PUBLIC        P0
  D:00B2H         PUBLIC        P3M0
  D:0090H         PUBLIC        P1
  D:00B1H         PUBLIC        P3M1
  D:00A0H         PUBLIC        P2
  D:00B0H         PUBLIC        P3
  D:00C0H         PUBLIC        P4
  D:00C8H         PUBLIC        P5
  D:00E8H         PUBLIC        P6
  D:00F8H         PUBLIC        P7
  D:00A8H         PUBLIC        IE
  D:00B8H         PUBLIC        IP
  D:00D8H         PUBLIC        CCON
  C:6B21H         PUBLIC        main
  D:0098H         PUBLIC        SCON
  D:0088H         PUBLIC        TCON
  D:00D0H         PUBLIC        PSW
  -------         PROC          MAIN
  C:6B21H         LINE#         14
  C:6B21H         LINE#         15
  C:6B21H         LINE#         17
  C:6B24H         LINE#         25
  C:6B27H         LINE#         29
  C:6B2AH         LINE#         33
  C:6B2DH         LINE#         37
  C:6B30H         LINE#         41
  C:6B33H         LINE#         42
  C:6B36H         LINE#         50
  C:6B39H         LINE#         51
  C:6B3CH         LINE#         53
  C:6B3FH         LINE#         55
  C:6B42H         LINE#         61
  C:6B42H         LINE#         62
  C:6B42H         LINE#         66
BL51 BANKED LINKER/LOCATER V6.22                                                      04/11/2016  14:38:45  PAGE 28


  C:6B45H         LINE#         67
  C:6B48H         LINE#         71
  C:6B4BH         LINE#         77
  -------         ENDPROC       MAIN
  -------         ENDMOD        MAIN

  -------         MODULE        USART
  C:0000H         SYMBOL        _ICE_DUMMY_
  D:0080H         PUBLIC        P0
  D:0090H         PUBLIC        P1
  D:00A0H         PUBLIC        P2
  D:00B0H         PUBLIC        P3
  D:00C0H         PUBLIC        P4
  D:00C8H         PUBLIC        P5
  B:00A8H.7       PUBLIC        EA
  D:00E8H         PUBLIC        P6
  D:00F8H         PUBLIC        P7
  X:05CCH         SYMBOL        SPIOK
  X:05CFH         SYMBOL        OKSPI
  C:6A5AH         PUBLIC        _SendString
  C:75F6H         PUBLIC        _SendData
  D:00A2H         PUBLIC        P_SW1
  D:00BAH         PUBLIC        P_SW2
  D:00A8H         PUBLIC        IE
  X:05D2H         PUBLIC        usart1_num
  X:05D3H         PUBLIC        usart2_num
  B:00A8H.4       PUBLIC        ES
  D:00B8H         PUBLIC        IP
  X:05D4H         SYMBOL        OK
  B:0098H.0       PUBLIC        RI
  B:0098H.1       PUBLIC        TI
  C:5BB5H         PUBLIC        Uart
  D:00D8H         PUBLIC        CCON
  C:6FFBH         PUBLIC        UsartInit
  C:69F4H         PUBLIC        _Usart1_SendString
  C:6A27H         PUBLIC        _Usart2_SendString
  C:75E4H         PUBLIC        _Usart1_SendData
  C:75EDH         PUBLIC        _Usart2_SendData
  X:05D7H         PUBLIC        usart2_enable
  D:0099H         PUBLIC        SBUF
  D:0098H         PUBLIC        SCON
  D:0088H         PUBLIC        TCON
  C:6400H         PUBLIC        _uart_printf
  D:00AFH         PUBLIC        IE2
  D:008EH         PUBLIC        AUXR
  B:0021H.1       PUBLIC        busy
  D:00E0H         PUBLIC        ACC
  X:05D8H         PUBLIC        usart1_begin
  X:05D9H         PUBLIC        usart2_begin
  D:00D6H         PUBLIC        T2H
  B:00D0H.0       PUBLIC        P
  C:5EFFH         PUBLIC        Uart2
  D:00D7H         PUBLIC        T2L
  X:05DAH         PUBLIC        usart2_data
  D:009BH         PUBLIC        S2BUF
  X:05DEH         PUBLIC        usart2_right
  D:009AH         PUBLIC        S2CON
BL51 BANKED LINKER/LOCATER V6.22                                                      04/11/2016  14:38:45  PAGE 29


  D:00D0H         PUBLIC        PSW
  -------         PROC          UART
  -------         DO            
  X:051DH         SYMBOL        temp
  -------         ENDDO         
  C:5BB5H         LINE#         26
  C:5BC2H         LINE#         28
  C:5BC7H         LINE#         29
  C:5BCDH         LINE#         30
  C:5BCDH         LINE#         31
  C:5BCFH         LINE#         33
  C:5BD2H         LINE#         34
  C:5BDFH         LINE#         35
  C:5BDFH         LINE#         36
  C:5BE7H         LINE#         37
  C:5BE7H         LINE#         38
  C:5BEDH         LINE#         39
  C:5BEFH         LINE#         40
  C:5BF4H         LINE#         41
  C:5BF4H         LINE#         42
  C:5BF8H         LINE#         43
  C:5BF8H         LINE#         44
  C:5BFAH         LINE#         45
  C:5C02H         LINE#         46
  C:5C02H         LINE#         47
  C:5C10H         LINE#         48
  C:5C10H         LINE#         49
  C:5C16H         LINE#         50
  C:5C1CH         LINE#         51
  C:5C20H         LINE#         52
  C:5C22H         LINE#         53
  C:5C2AH         LINE#         54
  C:5C2AH         LINE#         55
  C:5C39H         LINE#         56
  C:5C3FH         LINE#         57
  C:5C43H         LINE#         58
  C:5C43H         LINE#         59
  C:5C45H         LINE#         60
  C:5C49H         LINE#         61
  C:5C57H         LINE#         62
  C:5C57H         LINE#         63
  C:5C5DH         LINE#         64
  C:5C5FH         LINE#         66
  C:5C5FH         LINE#         67
  C:5C64H         LINE#         68
  C:5C64H         LINE#         70
  C:5C64H         LINE#         71
  C:5C64H         LINE#         72
  C:5C64H         LINE#         78
  C:5C64H         LINE#         79
  C:5C67H         LINE#         80
  C:5C67H         LINE#         81
  C:5C69H         LINE#         82
  C:5C6BH         LINE#         83
  C:5C6BH         LINE#         84
  -------         ENDPROC       UART
  -------         PROC          UART2
BL51 BANKED LINKER/LOCATER V6.22                                                      04/11/2016  14:38:45  PAGE 30


  -------         DO            
  D:000FH         SYMBOL        temp
  -------         ENDDO         
  C:5EFFH         LINE#         89
  C:5F0CH         LINE#         91
  C:5F0EH         LINE#         92
  C:5F13H         LINE#         93
  C:5F13H         LINE#         94
  C:5F16H         LINE#         95
  C:5F18H         LINE#         96
  C:5F20H         LINE#         97
  C:5F20H         LINE#         98
  C:5F28H         LINE#         99
  C:5F28H         LINE#         100
  C:5F3BH         LINE#         101
  C:5F3BH         LINE#         103
  C:5F42H         LINE#         104
  C:5F42H         LINE#         105
  C:5F47H         LINE#         106
  C:5F4BH         LINE#         107
  C:5F50H         LINE#         108
  C:5F50H         LINE#         109
  C:5F50H         LINE#         110
  C:5F57H         LINE#         111
  C:5F57H         LINE#         112
  C:5F5CH         LINE#         113
  C:5F60H         LINE#         114
  C:5F77H         LINE#         115
  C:5F77H         LINE#         116
  C:5F7CH         LINE#         117
  C:5F7CH         LINE#         118
  C:5F7CH         LINE#         122
  C:5F7CH         LINE#         123
  C:5F81H         LINE#         124
  C:5F81H         LINE#         125
  C:5F84H         LINE#         126
  C:5F86H         LINE#         127
  C:5F86H         LINE#         128
  -------         ENDPROC       UART2
  -------         PROC          _USART1_SENDDATA
  D:0007H         SYMBOL        dat
  C:75E4H         LINE#         133
  C:75E4H         LINE#         134
  C:75E4H         LINE#         135
  C:75E7H         LINE#         136
  C:75E8H         LINE#         137
  C:75E8H         LINE#         138
  C:75E8H         LINE#         144
  C:75E8H         LINE#         146
  C:75E8H         LINE#         152
  C:75E8H         LINE#         153
  C:75EAH         LINE#         154
  C:75ECH         LINE#         155
  -------         ENDPROC       _USART1_SENDDATA
  -------         PROC          _USART1_SENDSTRING
  X:0613H         SYMBOL        s
  C:69F4H         LINE#         160
BL51 BANKED LINKER/LOCATER V6.22                                                      04/11/2016  14:38:45  PAGE 31


  C:69FFH         LINE#         161
  C:69FFH         LINE#         162
  C:6A0FH         LINE#         163
  C:6A0FH         LINE#         164
  C:6A24H         LINE#         165
  C:6A26H         LINE#         166
  -------         ENDPROC       _USART1_SENDSTRING
  -------         PROC          _USART2_SENDDATA
  D:0007H         SYMBOL        dat
  C:75EDH         LINE#         171
  C:75EDH         LINE#         172
  C:75EDH         LINE#         173
  C:75F0H         LINE#         174
  C:75F1H         LINE#         175
  C:75F1H         LINE#         176
  C:75F1H         LINE#         182
  C:75F1H         LINE#         184
  C:75F1H         LINE#         190
  C:75F1H         LINE#         191
  C:75F3H         LINE#         192
  C:75F5H         LINE#         193
  -------         ENDPROC       _USART2_SENDDATA
  -------         PROC          _USART2_SENDSTRING
  X:0616H         SYMBOL        s
  C:6A27H         LINE#         198
  C:6A32H         LINE#         199
  C:6A32H         LINE#         200
  C:6A42H         LINE#         201
  C:6A42H         LINE#         202
  C:6A57H         LINE#         203
  C:6A59H         LINE#         204
  -------         ENDPROC       _USART2_SENDSTRING
  -------         PROC          _SENDDATA
  D:0007H         SYMBOL        dat
  C:75F6H         LINE#         210
  C:75F6H         LINE#         211
  C:75F6H         LINE#         212
  C:75F9H         LINE#         213
  C:75FAH         LINE#         214
  C:75FAH         LINE#         215
  C:75FAH         LINE#         221
  C:75FAH         LINE#         223
  C:75FAH         LINE#         229
  C:75FAH         LINE#         230
  C:75FCH         LINE#         231
  C:75FEH         LINE#         232
  -------         ENDPROC       _SENDDATA
  -------         PROC          _SENDSTRING
  X:0619H         SYMBOL        s
  C:6A5AH         LINE#         237
  C:6A65H         LINE#         238
  C:6A65H         LINE#         239
  C:6A75H         LINE#         240
  C:6A75H         LINE#         241
  C:6A8AH         LINE#         242
  C:6A8CH         LINE#         243
  -------         ENDPROC       _SENDSTRING
BL51 BANKED LINKER/LOCATER V6.22                                                      04/11/2016  14:38:45  PAGE 32


  -------         PROC          USARTINIT
  C:6FFBH         LINE#         246
  C:6FFBH         LINE#         247
  C:6FFBH         LINE#         248
  C:6FFDH         LINE#         249
  C:6FFFH         LINE#         250
  C:7001H         LINE#         262
  C:7004H         LINE#         266
  C:7007H         LINE#         274
  C:700AH         LINE#         282
  C:700DH         LINE#         283
  C:7010H         LINE#         284
  C:7013H         LINE#         285
  C:7016H         LINE#         286
  C:7018H         LINE#         287
  C:701BH         LINE#         288
  C:701DH         LINE#         293
  -------         ENDPROC       USARTINIT
  -------         PROC          _UART_PRINTF
  X:03A1H         SYMBOL        fmt
  -------         DO            
  X:03A4H         SYMBOL        ellipsis_40
  X:03CCH         SYMBOL        ap
  X:03CFH         SYMBOL        string
  -------         ENDDO         
  C:6400H         LINE#         295
  C:640BH         LINE#         296
  C:640BH         LINE#         300
  C:6419H         LINE#         301
  C:644CH         LINE#         302
  -------         ENDPROC       _UART_PRINTF
  -------         ENDMOD        USART

  -------         MODULE        KEY
  C:0000H         SYMBOL        _ICE_DUMMY_
  D:0080H         PUBLIC        P0
  D:0090H         PUBLIC        P1
  D:00A0H         PUBLIC        P2
  D:00B0H         PUBLIC        P3
  D:00C0H         PUBLIC        P4
  C:7427H         PUBLIC        _delaymulti10ms
  D:00C8H         PUBLIC        P5
  D:00E8H         PUBLIC        P6
  D:00F8H         PUBLIC        P7
  C:2E8BH         PUBLIC        table
  D:00A8H         PUBLIC        IE
  C:0FC2H         PUBLIC        KeyProcess
  X:0520H         PUBLIC        Two_Menu_Fb_E1
  X:0521H         PUBLIC        Two_Menu_Fd_E1
  X:0522H         PUBLIC        sound_table
  C:7721H         PUBLIC        return_Two_Menu_Fb_E1
  D:00B8H         PUBLIC        IP
  C:770FH         PUBLIC        return_sound_table
  D:00D8H         PUBLIC        CCON
  X:0523H         PUBLIC        func_index
  C:7697H         PUBLIC        return_func_index
  C:271DH         PUBLIC        KeyScan
BL51 BANKED LINKER/LOCATER V6.22                                                      04/11/2016  14:38:45  PAGE 33


  D:0098H         PUBLIC        SCON
  D:0088H         PUBLIC        TCON
  B:00B0H.3       PUBLIC        P33
  B:00A0H.5       PUBLIC        P25
  B:0090H.7       PUBLIC        P17
  B:00B0H.6       PUBLIC        P36
  B:00C8H.5       PUBLIC        P55
  B:00B0H.7       PUBLIC        P37
  X:0524H         PUBLIC        current_operation_index
  D:00C7H         PUBLIC        IAP_CONTR
  C:7715H         PUBLIC        _set_sound_table
  C:5DD2H         PUBLIC        env_load
  C:758EH         PUBLIC        delay10ms
  C:769DH         PUBLIC        _set_func_index
  D:00C1H         PUBLIC        WDT_CONTR
  C:6869H         PUBLIC        key_init
  C:6455H         PUBLIC        var_init
  C:3C2BH         PUBLIC        env_init
  X:0527H         PUBLIC        Two_Menu_F1_E1
  X:052CH         PUBLIC        Two_Menu_F2_E1
  X:0531H         PUBLIC        Two_Menu_F1_E2
  X:0536H         PUBLIC        Two_Menu_F3_E1
  X:0537H         PUBLIC        Two_Menu_F2_E2
  X:053CH         PUBLIC        Two_Menu_F1_E3
  X:0541H         PUBLIC        Two_Menu_F4_E1
  X:0542H         PUBLIC        Two_Menu_F3_E2
  X:0543H         PUBLIC        Two_Menu_F2_E3
  X:0548H         PUBLIC        Two_Menu_F1_E4
  X:054DH         PUBLIC        Two_Menu_F5_E1
  C:4E33H         PUBLIC        KeyDecoder
  X:054EH         PUBLIC        Two_Menu_F2_E4
  X:0553H         PUBLIC        Two_Menu_F6_E1
  X:0554H         PUBLIC        accumulate_decoder
  X:0555H         PUBLIC        Two_Menu_F7_E1
  X:0556H         PUBLIC        Two_Menu_F6_E2
  X:0557H         PUBLIC        Two_Menu_F8_E1
  X:0558H         PUBLIC        Two_Menu_F7_E2
  X:0559H         PUBLIC        Two_Menu_F6_E3
  C:76A3H         PUBLIC        return_Two_Menu_F3_E1
  X:055AH         PUBLIC        Two_Menu_F8_E2
  X:055BH         PUBLIC        Two_Menu_F7_E3
  X:055CH         PUBLIC        Two_Menu_F6_E4
  C:76AFH         PUBLIC        return_Two_Menu_F4_E1
  C:76A9H         PUBLIC        return_Two_Menu_F3_E2
  X:055DH         PUBLIC        Two_Menu_F7_E4
  X:055EH         PUBLIC        Two_Menu_F6_E5
  C:76B5H         PUBLIC        return_Two_Menu_F5_E1
  X:055FH         PUBLIC        Two_Menu_F6_E6
  C:76BBH         PUBLIC        return_Two_Menu_F6_E1
  X:0560H         PUBLIC        Two_Menu_F6_E7
  C:76EBH         PUBLIC        return_Two_Menu_F7_E1
  C:76C1H         PUBLIC        return_Two_Menu_F6_E2
  X:0561H         PUBLIC        Two_Menu_F6_E8
  C:7703H         PUBLIC        return_Two_Menu_F8_E1
  C:76F1H         PUBLIC        return_Two_Menu_F7_E2
  C:76C7H         PUBLIC        return_Two_Menu_F6_E3
  C:7709H         PUBLIC        return_Two_Menu_F8_E2
BL51 BANKED LINKER/LOCATER V6.22                                                      04/11/2016  14:38:45  PAGE 34


  C:76F7H         PUBLIC        return_Two_Menu_F7_E3
  C:76CDH         PUBLIC        return_Two_Menu_F6_E4
  C:76FDH         PUBLIC        return_Two_Menu_F7_E4
  C:76D3H         PUBLIC        return_Two_Menu_F6_E5
  C:76D9H         PUBLIC        return_Two_Menu_F6_E6
  C:76DFH         PUBLIC        return_Two_Menu_F6_E7
  C:76E5H         PUBLIC        return_Two_Menu_F6_E8
  X:0562H         PUBLIC        Two_Menu_FC_E1
  C:771BH         PUBLIC        return_Two_Menu_FC_E1
  D:00D0H         PUBLIC        PSW
  -------         PROC          KEYSCAN
  -------         DO            
  X:04D2H         SYMBOL        Val
  X:04D4H         SYMBOL        main_press_time_temp
  X:04D5H         SYMBOL        single_long_press_process_complice
  X:04D6H         SYMBOL        temp
  -------         ENDDO         
  C:271DH         LINE#         242
  C:271DH         LINE#         243
  C:271DH         LINE#         244
  C:2724H         LINE#         245
  C:2726H         LINE#         246
  C:2728H         LINE#         247
  C:272AH         LINE#         248
  C:2739H         LINE#         249
  C:2739H         LINE#         250
  C:273CH         LINE#         251
  C:274BH         LINE#         252
  C:274BH         LINE#         253
  C:274EH         LINE#         254
  C:275AH         LINE#         255
  C:2766H         LINE#         256
  C:2772H         LINE#         257
  C:277EH         LINE#         258
  C:278DH         LINE#         259
  C:278DH         LINE#         260
  C:2790H         LINE#         261
  C:2795H         LINE#         262
  C:27A4H         LINE#         263
  C:27A4H         LINE#         264
  C:27C3H         LINE#         265
  C:27C3H         LINE#         266
  C:27CBH         LINE#         267
  C:27D0H         LINE#         268
  C:27D0H         LINE#         269
  C:27D6H         LINE#         270
  C:27DDH         LINE#         271
  C:27DFH         LINE#         272
  C:27E1H         LINE#         273
  C:27E6H         LINE#         274
  C:27ECH         LINE#         275
  C:27ECH         LINE#         276
  C:27F3H         LINE#         277
  C:27F6H         LINE#         279
  C:27F6H         LINE#         280
  C:27FDH         LINE#         281
  C:27FDH         LINE#         282
BL51 BANKED LINKER/LOCATER V6.22                                                      04/11/2016  14:38:45  PAGE 35


  C:27FDH         LINE#         283
  C:27FDH         LINE#         284
  C:27FDH         LINE#         285
  C:2800H         LINE#         286
  C:2818H         LINE#         287
  C:2818H         LINE#         288
  C:2820H         LINE#         289
  C:2828H         LINE#         290
  C:2828H         LINE#         291
  C:282FH         LINE#         292
  C:283AH         LINE#         293
  C:283AH         LINE#         294
  C:2841H         LINE#         295
  C:2841H         LINE#         296
  C:2844H         LINE#         297
  C:2844H         LINE#         298
  C:2844H         LINE#         299
  C:2844H         LINE#         300
  C:2847H         LINE#         301
  C:285FH         LINE#         302
  C:285FH         LINE#         303
  C:2867H         LINE#         304
  C:286FH         LINE#         305
  C:286FH         LINE#         306
  C:2876H         LINE#         307
  C:2881H         LINE#         308
  C:2881H         LINE#         309
  C:2888H         LINE#         310
  C:2888H         LINE#         311
  C:288BH         LINE#         312
  C:288BH         LINE#         313
  C:288BH         LINE#         314
  C:288BH         LINE#         315
  C:288EH         LINE#         316
  C:28A6H         LINE#         317
  C:28A6H         LINE#         318
  C:28AEH         LINE#         319
  C:28B6H         LINE#         320
  C:28B6H         LINE#         321
  C:28BDH         LINE#         322
  C:28C8H         LINE#         323
  C:28C8H         LINE#         324
  C:28CFH         LINE#         325
  C:28CFH         LINE#         326
  C:28D2H         LINE#         327
  C:28D2H         LINE#         328
  C:28D2H         LINE#         329
  C:28D2H         LINE#         330
  C:28D5H         LINE#         331
  C:28EDH         LINE#         332
  C:28EDH         LINE#         333
  C:28F5H         LINE#         334
  C:28FDH         LINE#         335
  C:28FDH         LINE#         336
  C:2904H         LINE#         337
  C:290FH         LINE#         338
  C:290FH         LINE#         339
BL51 BANKED LINKER/LOCATER V6.22                                                      04/11/2016  14:38:45  PAGE 36


  C:2916H         LINE#         340
  C:2916H         LINE#         341
  C:2919H         LINE#         342
  C:2919H         LINE#         343
  C:2919H         LINE#         344
  C:2919H         LINE#         345
  C:291CH         LINE#         346
  C:2923H         LINE#         347
  C:2923H         LINE#         348
  C:292BH         LINE#         349
  C:2933H         LINE#         350
  C:2933H         LINE#         351
  C:293AH         LINE#         352
  C:2940H         LINE#         353
  C:2948H         LINE#         354
  C:294BH         LINE#         355
  C:294BH         LINE#         356
  C:294BH         LINE#         357
  C:294BH         LINE#         358
  C:294EH         LINE#         359
  C:2955H         LINE#         360
  C:2955H         LINE#         361
  C:295DH         LINE#         362
  C:2965H         LINE#         363
  C:2965H         LINE#         364
  C:296CH         LINE#         365
  C:2972H         LINE#         366
  C:297AH         LINE#         367
  C:297DH         LINE#         368
  C:297DH         LINE#         369
  C:297DH         LINE#         370
  C:297DH         LINE#         371
  C:2980H         LINE#         372
  C:2987H         LINE#         373
  C:2987H         LINE#         374
  C:298FH         LINE#         375
  C:2997H         LINE#         376
  C:2997H         LINE#         377
  C:299EH         LINE#         378
  C:29A4H         LINE#         379
  C:29A4H         LINE#         380
  C:29A4H         LINE#         381
  C:29A4H         LINE#         382
  C:29A6H         LINE#         384
  C:29ADH         LINE#         385
  C:29ADH         LINE#         386
  C:29B5H         LINE#         387
  C:29BDH         LINE#         388
  C:29BDH         LINE#         389
  C:29C4H         LINE#         390
  C:29CAH         LINE#         391
  C:29CFH         LINE#         392
  C:29CFH         LINE#         393
  C:29CFH         LINE#         394
  C:29CFH         LINE#         395
  C:29D1H         LINE#         397
  C:29D8H         LINE#         398
BL51 BANKED LINKER/LOCATER V6.22                                                      04/11/2016  14:38:45  PAGE 37


  C:29D8H         LINE#         399
  C:29E0H         LINE#         400
  C:29E8H         LINE#         401
  C:29E8H         LINE#         402
  C:29EFH         LINE#         403
  C:29F5H         LINE#         404
  C:29FDH         LINE#         405
  C:2A00H         LINE#         406
  C:2A06H         LINE#         407
  C:2A09H         LINE#         408
  C:2A09H         LINE#         409
  C:2A0CH         LINE#         410
  C:2A14H         LINE#         411
  C:2A14H         LINE#         412
  C:2A1CH         LINE#         413
  C:2A24H         LINE#         414
  C:2A24H         LINE#         415
  C:2A2BH         LINE#         417
  C:2A31H         LINE#         418
  C:2A34H         LINE#         419
  C:2A37H         LINE#         420
  C:2A37H         LINE#         424
  C:2A37H         LINE#         425
  C:2A37H         LINE#         426
  C:2A37H         LINE#         427
  C:2A37H         LINE#         428
  C:2A37H         LINE#         429
  C:2A39H         LINE#         430
  C:2A44H         LINE#         431
  C:2A44H         LINE#         432
  C:2A4CH         LINE#         433
  C:2A54H         LINE#         434
  C:2A54H         LINE#         435
  C:2A5BH         LINE#         436
  C:2A61H         LINE#         437
  C:2A64H         LINE#         438
  C:2A67H         LINE#         439
  C:2A6AH         LINE#         440
  C:2A7FH         LINE#         441
  C:2A82H         LINE#         442
  C:2A97H         LINE#         443
  C:2A9AH         LINE#         444
  C:2A9DH         LINE#         445
  C:2AA0H         LINE#         446
  C:2AA3H         LINE#         450
  C:2AA8H         LINE#         451
  C:2AADH         LINE#         452
  C:2AB0H         LINE#         453
  C:2AB3H         LINE#         454
  C:2AB3H         LINE#         455
  C:2AB3H         LINE#         457
  C:2AB6H         LINE#         458
  C:2AB6H         LINE#         459
  C:2AC2H         LINE#         460
  C:2AC5H         LINE#         461
  C:2AD1H         LINE#         462
  C:2AD6H         LINE#         463
BL51 BANKED LINKER/LOCATER V6.22                                                      04/11/2016  14:38:45  PAGE 38


  C:2ADBH         LINE#         464
  C:2AFFH         LINE#         465
  C:2AFFH         LINE#         466
  C:2B06H         LINE#         467
  C:2B06H         LINE#         468
  C:2B0CH         LINE#         469
  C:2B0CH         LINE#         470
  C:2B11H         LINE#         471
  C:2B13H         LINE#         473
  C:2B13H         LINE#         474
  C:2B18H         LINE#         475
  C:2B18H         LINE#         476
  C:2B21H         LINE#         477
  C:2B21H         LINE#         478
  C:2B21H         LINE#         480
  C:2B25H         LINE#         481
  -------         ENDPROC       KEYSCAN
  -------         PROC          KEYDECODER
  -------         DO            
  X:04D0H         SYMBOL        key_val
  D:0007H         SYMBOL        register_manager_temp
  -------         ENDDO         
  C:4E33H         LINE#         483
  C:4E33H         LINE#         484
  C:4E33H         LINE#         485
  C:4E3AH         LINE#         486
  C:4E3BH         LINE#         487
  C:4E46H         LINE#         488
  C:4E49H         LINE#         489
  C:4E59H         LINE#         490
  C:4E59H         LINE#         492
  C:4E61H         LINE#         493
  C:4E61H         LINE#         495
  C:4E84H         LINE#         496
  C:4E84H         LINE#         499
  C:4E8EH         LINE#         500
  C:4E8EH         LINE#         501
  C:4E94H         LINE#         502
  C:4E96H         LINE#         504
  C:4E96H         LINE#         505
  C:4E9BH         LINE#         506
  C:4E9BH         LINE#         507
  C:4EA4H         LINE#         508
  C:4EA4H         LINE#         509
  C:4EA9H         LINE#         510
  C:4EAEH         LINE#         511
  C:4EAEH         LINE#         512
  C:4EAEH         LINE#         513
  C:4EB1H         LINE#         514
  C:4EB7H         LINE#         515
  C:4EB7H         LINE#         516
  C:4EBCH         LINE#         517
  C:4EBCH         LINE#         518
  C:4EC7H         LINE#         519
  C:4EC7H         LINE#         520
  C:4ECDH         LINE#         521
  C:4ECDH         LINE#         522
BL51 BANKED LINKER/LOCATER V6.22                                                      04/11/2016  14:38:45  PAGE 39


  C:4EDEH         LINE#         523
  C:4EDEH         LINE#         524
  C:4EDEH         LINE#         525
  C:4EE4H         LINE#         526
  C:4EE4H         LINE#         527
  C:4EECH         LINE#         528
  C:4EF3H         LINE#         529
  C:4EF3H         LINE#         530
  C:4EF6H         LINE#         531
  C:4EF9H         LINE#         532
  C:4EF9H         LINE#         533
  C:4EF9H         LINE#         534
  C:4EF9H         LINE#         535
  C:4EFBH         LINE#         536
  C:4EFBH         LINE#         537
  C:4F01H         LINE#         538
  C:4F01H         LINE#         539
  C:4F09H         LINE#         540
  C:4F09H         LINE#         541
  C:4F09H         LINE#         542
  C:4F0BH         LINE#         543
  C:4F0BH         LINE#         544
  C:4F11H         LINE#         545
  C:4F11H         LINE#         546
  C:4F19H         LINE#         547
  C:4F19H         LINE#         548
  C:4F19H         LINE#         549
  C:4F1BH         LINE#         550
  C:4F1BH         LINE#         551
  C:4F27H         LINE#         552
  C:4F27H         LINE#         553
  C:4F2FH         LINE#         554
  C:4F34H         LINE#         555
  C:4F34H         LINE#         556
  C:4F34H         LINE#         557
  C:4F34H         LINE#         558
  C:4F34H         LINE#         559
  C:4F34H         LINE#         560
  C:4F34H         LINE#         567
  C:4F50H         LINE#         568
  C:4F50H         LINE#         569
  C:4F53H         LINE#         570
  C:4F56H         LINE#         571
  C:4F59H         LINE#         572
  C:4F5CH         LINE#         573
  C:4F5EH         LINE#         574
  C:4F5EH         LINE#         575
  -------         ENDPROC       KEYDECODER
  -------         PROC          KEYPROCESS
  -------         DO            
  D:0007H         SYMBOL        key_value
  X:04CFH         SYMBOL        main_press_time_temp
  -------         ENDDO         
  C:0FC2H         LINE#         577
  C:0FC2H         LINE#         578
  C:0FC2H         LINE#         579
  C:0FC8H         LINE#         580
BL51 BANKED LINKER/LOCATER V6.22                                                      04/11/2016  14:38:45  PAGE 40


  C:0FCBH         LINE#         581
  C:0FE5H         LINE#         582
  C:0FE5H         LINE#         583
  C:0FE5H         LINE#         584
  C:1003H         LINE#         585
  C:1003H         LINE#         586
  C:100BH         LINE#         587
  C:1013H         LINE#         588
  C:1013H         LINE#         589
  C:1018H         LINE#         590
  C:1018H         LINE#         591
  C:1018H         LINE#         592
  C:1018H         LINE#         593
  C:101BH         LINE#         594
  C:1033H         LINE#         595
  C:1033H         LINE#         596
  C:103BH         LINE#         597
  C:1040H         LINE#         598
  C:1040H         LINE#         599
  C:104BH         LINE#         600
  C:104BH         LINE#         601
  C:1051H         LINE#         602
  C:1051H         LINE#         603
  C:1058H         LINE#         605
  C:105DH         LINE#         606
  C:105DH         LINE#         607
  C:105DH         LINE#         608
  C:105DH         LINE#         609
  C:105DH         LINE#         610
  C:1060H         LINE#         614
  C:1078H         LINE#         615
  C:1078H         LINE#         616
  C:1080H         LINE#         617
  C:1085H         LINE#         618
  C:1085H         LINE#         619
  C:1090H         LINE#         620
  C:1090H         LINE#         621
  C:1096H         LINE#         622
  C:1096H         LINE#         623
  C:109DH         LINE#         625
  C:10A2H         LINE#         626
  C:10A2H         LINE#         627
  C:10A2H         LINE#         628
  C:10A2H         LINE#         629
  C:10A2H         LINE#         630
  C:10A5H         LINE#         632
  C:10A5H         LINE#         633
  C:10A8H         LINE#         634
  C:10C0H         LINE#         635
  C:10C0H         LINE#         636
  C:10C8H         LINE#         637
  C:10CDH         LINE#         638
  C:10CDH         LINE#         639
  C:10D8H         LINE#         640
  C:10D8H         LINE#         641
  C:10DEH         LINE#         642
  C:10DEH         LINE#         643
BL51 BANKED LINKER/LOCATER V6.22                                                      04/11/2016  14:38:45  PAGE 41


  C:10E5H         LINE#         645
  C:10EAH         LINE#         646
  C:10EAH         LINE#         647
  C:10EAH         LINE#         648
  C:10EAH         LINE#         649
  C:10EAH         LINE#         650
  C:10ECH         LINE#         652
  C:10ECH         LINE#         653
  C:10EEH         LINE#         654
  C:1106H         LINE#         655
  C:1106H         LINE#         656
  C:110EH         LINE#         657
  C:1113H         LINE#         658
  C:1113H         LINE#         659
  C:111EH         LINE#         660
  C:111EH         LINE#         661
  C:1124H         LINE#         662
  C:1124H         LINE#         663
  C:112BH         LINE#         665
  C:1130H         LINE#         666
  C:1130H         LINE#         667
  C:1130H         LINE#         668
  C:1133H         LINE#         669
  C:1133H         LINE#         670
  C:1136H         LINE#         672
  C:1146H         LINE#         673
  C:1149H         LINE#         674
  C:1150H         LINE#         675
  C:1150H         LINE#         676
  C:1158H         LINE#         677
  C:1160H         LINE#         678
  C:1160H         LINE#         679
  C:1166H         LINE#         680
  C:116BH         LINE#         681
  C:116BH         LINE#         682
  C:116BH         LINE#         683
  C:116EH         LINE#         684
  C:1175H         LINE#         685
  C:1175H         LINE#         686
  C:117DH         LINE#         687
  C:1185H         LINE#         688
  C:1185H         LINE#         689
  C:118BH         LINE#         690
  C:1190H         LINE#         691
  C:1190H         LINE#         692
  C:1190H         LINE#         693
  C:1193H         LINE#         694
  C:119AH         LINE#         695
  C:119AH         LINE#         696
  C:11A2H         LINE#         697
  C:11AAH         LINE#         698
  C:11AAH         LINE#         699
  C:11B0H         LINE#         700
  C:11B5H         LINE#         701
  C:11B5H         LINE#         702
  C:11B5H         LINE#         703
  C:11B8H         LINE#         704
BL51 BANKED LINKER/LOCATER V6.22                                                      04/11/2016  14:38:45  PAGE 42


  C:11BFH         LINE#         705
  C:11BFH         LINE#         706
  C:11C7H         LINE#         707
  C:11CFH         LINE#         708
  C:11CFH         LINE#         709
  C:11D5H         LINE#         710
  C:11DAH         LINE#         711
  C:11DAH         LINE#         712
  C:11DAH         LINE#         713
  C:11DDH         LINE#         715
  C:11E4H         LINE#         716
  C:11E4H         LINE#         717
  C:11ECH         LINE#         718
  C:11F4H         LINE#         719
  C:11F4H         LINE#         720
  C:11FAH         LINE#         721
  C:11FFH         LINE#         722
  C:11FFH         LINE#         723
  C:11FFH         LINE#         724
  C:1202H         LINE#         726
  C:1209H         LINE#         727
  C:1209H         LINE#         728
  C:1211H         LINE#         729
  C:1219H         LINE#         730
  C:1219H         LINE#         731
  C:121FH         LINE#         732
  C:1224H         LINE#         733
  C:1224H         LINE#         734
  C:1224H         LINE#         735
  C:1227H         LINE#         736
  C:122FH         LINE#         737
  C:122FH         LINE#         738
  C:1237H         LINE#         739
  C:123FH         LINE#         740
  C:123FH         LINE#         741
  C:1246H         LINE#         742
  C:1249H         LINE#         743
  C:124CH         LINE#         744
  C:124CH         LINE#         748
  C:124CH         LINE#         749
  C:124CH         LINE#         750
  C:124CH         LINE#         751
  C:124CH         LINE#         752
  C:124EH         LINE#         753
  C:1256H         LINE#         754
  C:1256H         LINE#         755
  C:125EH         LINE#         756
  C:1266H         LINE#         757
  C:1266H         LINE#         758
  C:126DH         LINE#         759
  C:1270H         LINE#         760
  C:1273H         LINE#         761
  C:1276H         LINE#         762
  C:128BH         LINE#         763
  C:128EH         LINE#         764
  C:12A3H         LINE#         765
  C:12A6H         LINE#         766
BL51 BANKED LINKER/LOCATER V6.22                                                      04/11/2016  14:38:45  PAGE 43


  C:12A9H         LINE#         767
  C:12ACH         LINE#         768
  C:12AFH         LINE#         772
  C:12B4H         LINE#         773
  C:12B7H         LINE#         774
  C:12BAH         LINE#         775
  C:12BAH         LINE#         776
  C:12BDH         LINE#         778
  C:12BDH         LINE#         779
  C:12D5H         LINE#         780
  C:12D8H         LINE#         781
  C:12D8H         LINE#         782
  C:12DBH         LINE#         783
  C:12DBH         LINE#         784
  C:12E8H         LINE#         785
  C:12E8H         LINE#         786
  C:12EBH         LINE#         787
  C:12F0H         LINE#         788
  C:12F3H         LINE#         789
  C:12F6H         LINE#         791
  C:1306H         LINE#         792
  C:1309H         LINE#         793
  C:1309H         LINE#         794
  C:13C5H         LINE#         795
  C:13C5H         LINE#         796
  C:13C5H         LINE#         797
  C:13D1H         LINE#         798
  C:13D4H         LINE#         799
  C:13D7H         LINE#         800
  C:13D7H         LINE#         801
  C:13E0H         LINE#         802
  C:13E3H         LINE#         803
  C:13E6H         LINE#         804
  C:13E6H         LINE#         805
  C:13EFH         LINE#         806
  C:13F2H         LINE#         807
  C:13F5H         LINE#         808
  C:13F5H         LINE#         809
  C:1402H         LINE#         810
  C:1405H         LINE#         811
  C:1408H         LINE#         812
  C:1408H         LINE#         813
  C:1414H         LINE#         814
  C:1417H         LINE#         815
  C:141AH         LINE#         816
  C:141AH         LINE#         817
  C:1426H         LINE#         818
  C:1429H         LINE#         819
  C:142CH         LINE#         820
  C:142CH         LINE#         821
  C:1438H         LINE#         822
  C:143BH         LINE#         823
  C:143EH         LINE#         824
  C:143EH         LINE#         826
  C:144AH         LINE#         831
  C:144DH         LINE#         832
  C:1450H         LINE#         833
BL51 BANKED LINKER/LOCATER V6.22                                                      04/11/2016  14:38:45  PAGE 44


  C:1450H         LINE#         834
  C:145CH         LINE#         835
  C:145FH         LINE#         836
  C:1462H         LINE#         837
  C:1462H         LINE#         838
  C:146EH         LINE#         839
  C:1471H         LINE#         840
  C:1474H         LINE#         841
  C:1474H         LINE#         842
  C:1480H         LINE#         843
  C:1483H         LINE#         844
  C:1486H         LINE#         845
  C:1486H         LINE#         847
  C:1492H         LINE#         852
  C:1495H         LINE#         853
  C:1498H         LINE#         854
  C:1498H         LINE#         855
  C:14A4H         LINE#         856
  C:14A7H         LINE#         857
  C:14AAH         LINE#         858
  C:14AAH         LINE#         859
  C:14B6H         LINE#         860
  C:14B9H         LINE#         861
  C:14BCH         LINE#         862
  C:14BCH         LINE#         863
  C:14C8H         LINE#         864
  C:14CBH         LINE#         865
  C:14CEH         LINE#         866
  C:14CEH         LINE#         868
  C:14DAH         LINE#         873
  C:14DDH         LINE#         874
  C:14E0H         LINE#         875
  C:14E0H         LINE#         876
  C:14ECH         LINE#         877
  C:14EFH         LINE#         878
  C:14F2H         LINE#         879
  C:14F2H         LINE#         880
  C:14FEH         LINE#         881
  C:1501H         LINE#         882
  C:1504H         LINE#         883
  C:1504H         LINE#         884
  C:1510H         LINE#         885
  C:1513H         LINE#         886
  C:1516H         LINE#         887
  C:1516H         LINE#         889
  C:1522H         LINE#         894
  C:1525H         LINE#         895
  C:1528H         LINE#         896
  C:1528H         LINE#         897
  C:1534H         LINE#         898
  C:1537H         LINE#         899
  C:153AH         LINE#         900
  C:153AH         LINE#         901
  C:1546H         LINE#         902
  C:1549H         LINE#         903
  C:154CH         LINE#         904
  C:154CH         LINE#         905
BL51 BANKED LINKER/LOCATER V6.22                                                      04/11/2016  14:38:45  PAGE 45


  C:1558H         LINE#         906
  C:155BH         LINE#         907
  C:155EH         LINE#         908
  C:155EH         LINE#         910
  C:156AH         LINE#         915
  C:156DH         LINE#         916
  C:1570H         LINE#         917
  C:1570H         LINE#         918
  C:157CH         LINE#         919
  C:157FH         LINE#         920
  C:1582H         LINE#         921
  C:1582H         LINE#         922
  C:158EH         LINE#         923
  C:1591H         LINE#         924
  C:1594H         LINE#         925
  C:1594H         LINE#         926
  C:15A0H         LINE#         927
  C:15A3H         LINE#         928
  C:15A6H         LINE#         929
  C:15A6H         LINE#         931
  C:15B2H         LINE#         936
  C:15B5H         LINE#         937
  C:15B8H         LINE#         938
  C:15B8H         LINE#         939
  C:15C4H         LINE#         940
  C:15C7H         LINE#         941
  C:15CAH         LINE#         942
  C:15CAH         LINE#         943
  C:15D6H         LINE#         944
  C:15D9H         LINE#         945
  C:15DCH         LINE#         946
  C:15DCH         LINE#         947
  C:15E8H         LINE#         948
  C:15EBH         LINE#         949
  C:15EEH         LINE#         950
  C:15EEH         LINE#         952
  C:15FAH         LINE#         957
  C:15FDH         LINE#         958
  C:1600H         LINE#         959
  C:1600H         LINE#         960
  C:160CH         LINE#         961
  C:160FH         LINE#         962
  C:1612H         LINE#         963
  C:1612H         LINE#         964
  C:161EH         LINE#         965
  C:1621H         LINE#         966
  C:1624H         LINE#         967
  C:1624H         LINE#         968
  C:1630H         LINE#         969
  C:1633H         LINE#         970
  C:1636H         LINE#         971
  C:1636H         LINE#         973
  C:1642H         LINE#         978
  C:1645H         LINE#         979
  C:1648H         LINE#         980
  C:1648H         LINE#         981
  C:1654H         LINE#         982
BL51 BANKED LINKER/LOCATER V6.22                                                      04/11/2016  14:38:45  PAGE 46


  C:1657H         LINE#         983
  C:165AH         LINE#         984
  C:165AH         LINE#         985
  C:1665H         LINE#         986
  C:166BH         LINE#         987
  C:166BH         LINE#         988
  C:1678H         LINE#         989
  C:167EH         LINE#         990
  C:167EH         LINE#         991
  C:1681H         LINE#         992
  C:1681H         LINE#         993
  C:168DH         LINE#         994
  C:1693H         LINE#         995
  C:1693H         LINE#         996
  C:1696H         LINE#         997
  C:1696H         LINE#         998
  C:16A1H         LINE#         999
  C:16A7H         LINE#         1000
  C:16A7H         LINE#         1001
  C:16AAH         LINE#         1002
  C:16AAH         LINE#         1003
  C:16B5H         LINE#         1004
  C:16BBH         LINE#         1005
  C:16BBH         LINE#         1006
  C:16BEH         LINE#         1007
  C:16BEH         LINE#         1008
  C:16C9H         LINE#         1009
  C:16CFH         LINE#         1010
  C:16CFH         LINE#         1011
  C:16D2H         LINE#         1012
  C:16D2H         LINE#         1013
  C:16DEH         LINE#         1014
  C:16E4H         LINE#         1032
  C:16E4H         LINE#         1033
  C:16E7H         LINE#         1034
  C:16E7H         LINE#         1035
  C:16F1H         LINE#         1036
  C:16F6H         LINE#         1037
  C:16F6H         LINE#         1038
  C:16F9H         LINE#         1039
  C:16F9H         LINE#         1040
  C:1704H         LINE#         1041
  C:170AH         LINE#         1042
  C:170AH         LINE#         1043
  C:170DH         LINE#         1044
  C:170DH         LINE#         1045
  C:1718H         LINE#         1046
  C:171EH         LINE#         1047
  C:171EH         LINE#         1048
  C:1721H         LINE#         1049
  C:1721H         LINE#         1050
  C:172CH         LINE#         1051
  C:1732H         LINE#         1052
  C:1732H         LINE#         1053
  C:1735H         LINE#         1054
  C:1735H         LINE#         1055
  C:1741H         LINE#         1056
BL51 BANKED LINKER/LOCATER V6.22                                                      04/11/2016  14:38:45  PAGE 47


  C:1744H         LINE#         1057
  C:1746H         LINE#         1058
  C:1746H         LINE#         1059
  C:1752H         LINE#         1060
  C:1755H         LINE#         1061
  C:1757H         LINE#         1062
  C:1757H         LINE#         1063
  C:1763H         LINE#         1064
  C:1766H         LINE#         1065
  C:1768H         LINE#         1066
  C:1768H         LINE#         1067
  C:1774H         LINE#         1068
  C:177AH         LINE#         1069
  C:177AH         LINE#         1070
  C:177CH         LINE#         1071
  C:177CH         LINE#         1072
  C:1787H         LINE#         1073
  C:178DH         LINE#         1074
  C:178FH         LINE#         1075
  C:178FH         LINE#         1076
  C:1792H         LINE#         1077
  C:1794H         LINE#         1078
  C:1794H         LINE#         1079
  C:17A0H         LINE#         1080
  C:17A6H         LINE#         1081
  C:17A6H         LINE#         1082
  C:17A8H         LINE#         1083
  C:17A8H         LINE#         1084
  C:17B3H         LINE#         1085
  C:17B9H         LINE#         1086
  C:17B9H         LINE#         1087
  C:17BBH         LINE#         1088
  C:17BBH         LINE#         1089
  C:17C6H         LINE#         1090
  C:17CCH         LINE#         1091
  C:17CCH         LINE#         1092
  C:17CEH         LINE#         1093
  C:17CEH         LINE#         1094
  C:17D9H         LINE#         1095
  C:17DFH         LINE#         1096
  C:17DFH         LINE#         1097
  C:17E1H         LINE#         1098
  C:17E1H         LINE#         1099
  C:17ECH         LINE#         1100
  C:17F2H         LINE#         1101
  C:17F5H         LINE#         1102
  C:17F5H         LINE#         1104
  C:17F5H         LINE#         1105
  C:17F5H         LINE#         1106
  C:1808H         LINE#         1107
  C:1808H         LINE#         1108
  C:18C4H         LINE#         1109
  C:18C4H         LINE#         1110
  C:18C4H         LINE#         1111
  C:18D0H         LINE#         1112
  C:18D3H         LINE#         1113
  C:18D6H         LINE#         1114
BL51 BANKED LINKER/LOCATER V6.22                                                      04/11/2016  14:38:45  PAGE 48


  C:18D6H         LINE#         1115
  C:18E3H         LINE#         1116
  C:18E6H         LINE#         1117
  C:18E9H         LINE#         1118
  C:18E9H         LINE#         1119
  C:18F6H         LINE#         1120
  C:18F9H         LINE#         1121
  C:18FCH         LINE#         1122
  C:18FCH         LINE#         1123
  C:1909H         LINE#         1124
  C:190CH         LINE#         1125
  C:190FH         LINE#         1126
  C:190FH         LINE#         1127
  C:191BH         LINE#         1128
  C:191EH         LINE#         1129
  C:1921H         LINE#         1130
  C:1921H         LINE#         1131
  C:192DH         LINE#         1132
  C:1930H         LINE#         1133
  C:1933H         LINE#         1134
  C:1933H         LINE#         1135
  C:193CH         LINE#         1136
  C:193FH         LINE#         1137
  C:1942H         LINE#         1138
  C:1942H         LINE#         1139
  C:1948H         LINE#         1141
  C:194BH         LINE#         1146
  C:194EH         LINE#         1147
  C:1951H         LINE#         1148
  C:1951H         LINE#         1149
  C:195AH         LINE#         1150
  C:195DH         LINE#         1151
  C:1960H         LINE#         1152
  C:1960H         LINE#         1153
  C:1969H         LINE#         1154
  C:196CH         LINE#         1155
  C:196FH         LINE#         1156
  C:196FH         LINE#         1157
  C:1978H         LINE#         1158
  C:197BH         LINE#         1159
  C:197EH         LINE#         1160
  C:197EH         LINE#         1161
  C:1984H         LINE#         1164
  C:1987H         LINE#         1169
  C:198AH         LINE#         1170
  C:198DH         LINE#         1171
  C:198DH         LINE#         1172
  C:1996H         LINE#         1173
  C:1999H         LINE#         1174
  C:199CH         LINE#         1175
  C:199CH         LINE#         1176
  C:19A5H         LINE#         1177
  C:19A8H         LINE#         1178
  C:19ABH         LINE#         1179
  C:19ABH         LINE#         1180
  C:19B4H         LINE#         1181
  C:19B7H         LINE#         1182
BL51 BANKED LINKER/LOCATER V6.22                                                      04/11/2016  14:38:45  PAGE 49


  C:19BAH         LINE#         1183
  C:19BAH         LINE#         1184
  C:19C0H         LINE#         1186
  C:19C3H         LINE#         1191
  C:19C6H         LINE#         1192
  C:19C9H         LINE#         1193
  C:19C9H         LINE#         1194
  C:19D2H         LINE#         1195
  C:19D5H         LINE#         1196
  C:19D8H         LINE#         1197
  C:19D8H         LINE#         1198
  C:19E1H         LINE#         1199
  C:19E4H         LINE#         1200
  C:19E7H         LINE#         1201
  C:19E7H         LINE#         1202
  C:19F0H         LINE#         1203
  C:19F3H         LINE#         1204
  C:19F6H         LINE#         1205
  C:19F6H         LINE#         1206
  C:19FCH         LINE#         1208
  C:19FFH         LINE#         1213
  C:1A02H         LINE#         1214
  C:1A05H         LINE#         1215
  C:1A05H         LINE#         1216
  C:1A0EH         LINE#         1217
  C:1A11H         LINE#         1218
  C:1A14H         LINE#         1219
  C:1A14H         LINE#         1220
  C:1A1DH         LINE#         1221
  C:1A20H         LINE#         1222
  C:1A23H         LINE#         1223
  C:1A23H         LINE#         1224
  C:1A2CH         LINE#         1225
  C:1A2FH         LINE#         1226
  C:1A32H         LINE#         1227
  C:1A32H         LINE#         1228
  C:1A38H         LINE#         1230
  C:1A3BH         LINE#         1235
  C:1A3EH         LINE#         1236
  C:1A41H         LINE#         1237
  C:1A41H         LINE#         1238
  C:1A4AH         LINE#         1239
  C:1A4DH         LINE#         1240
  C:1A50H         LINE#         1241
  C:1A50H         LINE#         1242
  C:1A59H         LINE#         1243
  C:1A5CH         LINE#         1244
  C:1A5FH         LINE#         1245
  C:1A5FH         LINE#         1246
  C:1A67H         LINE#         1247
  C:1A6AH         LINE#         1248
  C:1A6DH         LINE#         1249
  C:1A6DH         LINE#         1250
  C:1A73H         LINE#         1252
  C:1A76H         LINE#         1257
  C:1A79H         LINE#         1258
  C:1A7CH         LINE#         1259
BL51 BANKED LINKER/LOCATER V6.22                                                      04/11/2016  14:38:45  PAGE 50


  C:1A7CH         LINE#         1260
  C:1A85H         LINE#         1261
  C:1A88H         LINE#         1262
  C:1A8BH         LINE#         1263
  C:1A8BH         LINE#         1264
  C:1A93H         LINE#         1265
  C:1A96H         LINE#         1266
  C:1A99H         LINE#         1267
  C:1A99H         LINE#         1268
  C:1AA1H         LINE#         1269
  C:1AA4H         LINE#         1270
  C:1AA7H         LINE#         1271
  C:1AA7H         LINE#         1272
  C:1AADH         LINE#         1274
  C:1AAFH         LINE#         1279
  C:1AB2H         LINE#         1280
  C:1AB5H         LINE#         1281
  C:1AB5H         LINE#         1282
  C:1ABDH         LINE#         1283
  C:1AC0H         LINE#         1284
  C:1AC3H         LINE#         1285
  C:1AC3H         LINE#         1286
  C:1ACBH         LINE#         1287
  C:1ACEH         LINE#         1288
  C:1AD1H         LINE#         1289
  C:1AD1H         LINE#         1290
  C:1ADDH         LINE#         1291
  C:1AE0H         LINE#         1292
  C:1AE3H         LINE#         1293
  C:1AE3H         LINE#         1294
  C:1AE9H         LINE#         1296
  C:1AEBH         LINE#         1301
  C:1AEEH         LINE#         1302
  C:1AF1H         LINE#         1303
  C:1AF1H         LINE#         1304
  C:1AF9H         LINE#         1305
  C:1AFCH         LINE#         1306
  C:1AFFH         LINE#         1307
  C:1AFFH         LINE#         1308
  C:1B0BH         LINE#         1309
  C:1B0EH         LINE#         1310
  C:1B11H         LINE#         1311
  C:1B11H         LINE#         1312
  C:1B1EH         LINE#         1313
  C:1B24H         LINE#         1314
  C:1B24H         LINE#         1315
  C:1B27H         LINE#         1316
  C:1B27H         LINE#         1317
  C:1B33H         LINE#         1318
  C:1B39H         LINE#         1319
  C:1B39H         LINE#         1320
  C:1B3CH         LINE#         1321
  C:1B3CH         LINE#         1322
  C:1B47H         LINE#         1323
  C:1B4DH         LINE#         1324
  C:1B4DH         LINE#         1325
  C:1B50H         LINE#         1326
BL51 BANKED LINKER/LOCATER V6.22                                                      04/11/2016  14:38:45  PAGE 51


  C:1B50H         LINE#         1327
  C:1B5BH         LINE#         1328
  C:1B61H         LINE#         1329
  C:1B61H         LINE#         1330
  C:1B64H         LINE#         1331
  C:1B64H         LINE#         1332
  C:1B6FH         LINE#         1333
  C:1B75H         LINE#         1334
  C:1B75H         LINE#         1335
  C:1B78H         LINE#         1336
  C:1B78H         LINE#         1337
  C:1B84H         LINE#         1338
  C:1B8AH         LINE#         1356
  C:1B8AH         LINE#         1357
  C:1B8DH         LINE#         1358
  C:1B8DH         LINE#         1359
  C:1B97H         LINE#         1360
  C:1B9CH         LINE#         1361
  C:1B9CH         LINE#         1362
  C:1B9FH         LINE#         1363
  C:1B9FH         LINE#         1364
  C:1BAAH         LINE#         1365
  C:1BB0H         LINE#         1366
  C:1BB0H         LINE#         1367
  C:1BB3H         LINE#         1368
  C:1BB3H         LINE#         1369
  C:1BBEH         LINE#         1370
  C:1BC4H         LINE#         1371
  C:1BC4H         LINE#         1372
  C:1BC7H         LINE#         1373
  C:1BC7H         LINE#         1374
  C:1BD2H         LINE#         1375
  C:1BD8H         LINE#         1376
  C:1BD8H         LINE#         1377
  C:1BDBH         LINE#         1378
  C:1BDBH         LINE#         1379
  C:1BE3H         LINE#         1380
  C:1BE6H         LINE#         1381
  C:1BE8H         LINE#         1382
  C:1BE8H         LINE#         1383
  C:1BF0H         LINE#         1384
  C:1BF3H         LINE#         1385
  C:1BF5H         LINE#         1386
  C:1BF5H         LINE#         1387
  C:1C01H         LINE#         1388
  C:1C04H         LINE#         1389
  C:1C06H         LINE#         1390
  C:1C06H         LINE#         1391
  C:1C12H         LINE#         1392
  C:1C18H         LINE#         1393
  C:1C18H         LINE#         1394
  C:1C1AH         LINE#         1395
  C:1C1AH         LINE#         1396
  C:1C25H         LINE#         1397
  C:1C2BH         LINE#         1398
  C:1C2DH         LINE#         1399
  C:1C2DH         LINE#         1400
BL51 BANKED LINKER/LOCATER V6.22                                                      04/11/2016  14:38:45  PAGE 52


  C:1C30H         LINE#         1401
  C:1C32H         LINE#         1402
  C:1C32H         LINE#         1403
  C:1C3EH         LINE#         1404
  C:1C44H         LINE#         1405
  C:1C44H         LINE#         1406
  C:1C46H         LINE#         1407
  C:1C46H         LINE#         1408
  C:1C51H         LINE#         1409
  C:1C57H         LINE#         1410
  C:1C57H         LINE#         1411
  C:1C59H         LINE#         1412
  C:1C59H         LINE#         1413
  C:1C64H         LINE#         1414
  C:1C6AH         LINE#         1415
  C:1C6AH         LINE#         1416
  C:1C6CH         LINE#         1417
  C:1C6CH         LINE#         1418
  C:1C77H         LINE#         1419
  C:1C7DH         LINE#         1420
  C:1C7DH         LINE#         1421
  C:1C7FH         LINE#         1422
  C:1C7FH         LINE#         1423
  C:1C8AH         LINE#         1424
  C:1C90H         LINE#         1425
  C:1C93H         LINE#         1426
  C:1C93H         LINE#         1428
  C:1C93H         LINE#         1429
  C:1C93H         LINE#         1430
  C:1CABH         LINE#         1431
  C:1CABH         LINE#         1432
  C:1CABH         LINE#         1434
  C:1CD3H         LINE#         1435
  -------         ENDPROC       KEYPROCESS
  -------         PROC          DELAY10MS
  -------         DO            
  D:0005H         SYMBOL        a
  D:0006H         SYMBOL        b
  D:0007H         SYMBOL        c
  -------         ENDDO         
  C:758EH         LINE#         1438
  C:758EH         LINE#         1439
  C:758EH         LINE#         1441
  C:7590H         LINE#         1442
  C:7592H         LINE#         1443
  C:759AH         LINE#         1444
  C:759BH         LINE#         1445
  -------         ENDPROC       DELAY10MS
  -------         PROC          _DELAYMULTI10MS
  D:0002H         SYMBOL        delay
  -------         DO            
  D:0004H         SYMBOL        a
  -------         ENDDO         
  C:7427H         LINE#         1446
  C:742BH         LINE#         1447
  C:742BH         LINE#         1449
  C:7434H         LINE#         1450
BL51 BANKED LINKER/LOCATER V6.22                                                      04/11/2016  14:38:45  PAGE 53


  C:743AH         LINE#         1451
  -------         ENDPROC       _DELAYMULTI10MS
  -------         PROC          RETURN_FUNC_INDEX
  -------         DO            
  D:0007H         SYMBOL        func_index_temp
  -------         ENDDO         
  C:7697H         LINE#         1452
  C:7697H         LINE#         1453
  C:7697H         LINE#         1454
  C:7697H         LINE#         1455
  C:769CH         LINE#         1456
  C:769CH         LINE#         1457
  -------         ENDPROC       RETURN_FUNC_INDEX
  -------         PROC          _SET_FUNC_INDEX
  D:0007H         SYMBOL        temp
  C:769DH         LINE#         1459
  C:769DH         LINE#         1460
  C:769DH         LINE#         1461
  C:76A2H         LINE#         1462
  -------         ENDPROC       _SET_FUNC_INDEX
  -------         PROC          RETURN_TWO_MENU_F3_E1
  -------         DO            
  D:0007H         SYMBOL        temp
  -------         ENDDO         
  C:76A3H         LINE#         1464
  C:76A3H         LINE#         1465
  C:76A3H         LINE#         1466
  C:76A3H         LINE#         1467
  C:76A8H         LINE#         1468
  C:76A8H         LINE#         1469
  -------         ENDPROC       RETURN_TWO_MENU_F3_E1
  -------         PROC          RETURN_TWO_MENU_F3_E2
  -------         DO            
  D:0007H         SYMBOL        temp
  -------         ENDDO         
  C:76A9H         LINE#         1471
  C:76A9H         LINE#         1472
  C:76A9H         LINE#         1473
  C:76A9H         LINE#         1474
  C:76AEH         LINE#         1475
  C:76AEH         LINE#         1476
  -------         ENDPROC       RETURN_TWO_MENU_F3_E2
  -------         PROC          RETURN_TWO_MENU_F4_E1
  -------         DO            
  D:0007H         SYMBOL        temp
  -------         ENDDO         
  C:76AFH         LINE#         1478
  C:76AFH         LINE#         1479
  C:76AFH         LINE#         1480
  C:76AFH         LINE#         1481
  C:76B4H         LINE#         1482
  C:76B4H         LINE#         1483
  -------         ENDPROC       RETURN_TWO_MENU_F4_E1
  -------         PROC          RETURN_TWO_MENU_F5_E1
  -------         DO            
  D:0007H         SYMBOL        temp
  -------         ENDDO         
BL51 BANKED LINKER/LOCATER V6.22                                                      04/11/2016  14:38:45  PAGE 54


  C:76B5H         LINE#         1485
  C:76B5H         LINE#         1486
  C:76B5H         LINE#         1487
  C:76B5H         LINE#         1488
  C:76BAH         LINE#         1489
  C:76BAH         LINE#         1490
  -------         ENDPROC       RETURN_TWO_MENU_F5_E1
  -------         PROC          RETURN_TWO_MENU_F6_E1
  -------         DO            
  D:0007H         SYMBOL        temp
  -------         ENDDO         
  C:76BBH         LINE#         1492
  C:76BBH         LINE#         1493
  C:76BBH         LINE#         1494
  C:76BBH         LINE#         1495
  C:76C0H         LINE#         1496
  C:76C0H         LINE#         1497
  -------         ENDPROC       RETURN_TWO_MENU_F6_E1
  -------         PROC          RETURN_TWO_MENU_F6_E2
  -------         DO            
  D:0007H         SYMBOL        temp
  -------         ENDDO         
  C:76C1H         LINE#         1499
  C:76C1H         LINE#         1500
  C:76C1H         LINE#         1501
  C:76C1H         LINE#         1502
  C:76C6H         LINE#         1503
  C:76C6H         LINE#         1504
  -------         ENDPROC       RETURN_TWO_MENU_F6_E2
  -------         PROC          RETURN_TWO_MENU_F6_E3
  -------         DO            
  D:0007H         SYMBOL        temp
  -------         ENDDO         
  C:76C7H         LINE#         1506
  C:76C7H         LINE#         1507
  C:76C7H         LINE#         1508
  C:76C7H         LINE#         1509
  C:76CCH         LINE#         1510
  C:76CCH         LINE#         1511
  -------         ENDPROC       RETURN_TWO_MENU_F6_E3
  -------         PROC          RETURN_TWO_MENU_F6_E4
  -------         DO            
  D:0007H         SYMBOL        temp
  -------         ENDDO         
  C:76CDH         LINE#         1513
  C:76CDH         LINE#         1514
  C:76CDH         LINE#         1515
  C:76CDH         LINE#         1516
  C:76D2H         LINE#         1517
  C:76D2H         LINE#         1518
  -------         ENDPROC       RETURN_TWO_MENU_F6_E4
  -------         PROC          RETURN_TWO_MENU_F6_E5
  -------         DO            
  D:0007H         SYMBOL        temp
  -------         ENDDO         
  C:76D3H         LINE#         1520
  C:76D3H         LINE#         1521
BL51 BANKED LINKER/LOCATER V6.22                                                      04/11/2016  14:38:45  PAGE 55


  C:76D3H         LINE#         1522
  C:76D3H         LINE#         1523
  C:76D8H         LINE#         1524
  C:76D8H         LINE#         1525
  -------         ENDPROC       RETURN_TWO_MENU_F6_E5
  -------         PROC          RETURN_TWO_MENU_F6_E6
  -------         DO            
  D:0007H         SYMBOL        temp
  -------         ENDDO         
  C:76D9H         LINE#         1526
  C:76D9H         LINE#         1527
  C:76D9H         LINE#         1528
  C:76D9H         LINE#         1529
  C:76DEH         LINE#         1530
  C:76DEH         LINE#         1531
  -------         ENDPROC       RETURN_TWO_MENU_F6_E6
  -------         PROC          RETURN_TWO_MENU_F6_E7
  -------         DO            
  D:0007H         SYMBOL        temp
  -------         ENDDO         
  C:76DFH         LINE#         1533
  C:76DFH         LINE#         1534
  C:76DFH         LINE#         1535
  C:76DFH         LINE#         1536
  C:76E4H         LINE#         1537
  C:76E4H         LINE#         1538
  -------         ENDPROC       RETURN_TWO_MENU_F6_E7
  -------         PROC          RETURN_TWO_MENU_F6_E8
  -------         DO            
  D:0007H         SYMBOL        temp
  -------         ENDDO         
  C:76E5H         LINE#         1540
  C:76E5H         LINE#         1541
  C:76E5H         LINE#         1542
  C:76E5H         LINE#         1543
  C:76EAH         LINE#         1544
  C:76EAH         LINE#         1545
  -------         ENDPROC       RETURN_TWO_MENU_F6_E8
  -------         PROC          RETURN_TWO_MENU_F7_E1
  -------         DO            
  D:0007H         SYMBOL        temp
  -------         ENDDO         
  C:76EBH         LINE#         1547
  C:76EBH         LINE#         1548
  C:76EBH         LINE#         1549
  C:76EBH         LINE#         1550
  C:76F0H         LINE#         1551
  C:76F0H         LINE#         1552
  -------         ENDPROC       RETURN_TWO_MENU_F7_E1
  -------         PROC          RETURN_TWO_MENU_F7_E2
  -------         DO            
  D:0007H         SYMBOL        temp
  -------         ENDDO         
  C:76F1H         LINE#         1554
  C:76F1H         LINE#         1555
  C:76F1H         LINE#         1556
  C:76F1H         LINE#         1557
BL51 BANKED LINKER/LOCATER V6.22                                                      04/11/2016  14:38:45  PAGE 56


  C:76F6H         LINE#         1558
  C:76F6H         LINE#         1559
  -------         ENDPROC       RETURN_TWO_MENU_F7_E2
  -------         PROC          RETURN_TWO_MENU_F7_E3
  -------         DO            
  D:0007H         SYMBOL        temp
  -------         ENDDO         
  C:76F7H         LINE#         1561
  C:76F7H         LINE#         1562
  C:76F7H         LINE#         1563
  C:76F7H         LINE#         1564
  C:76FCH         LINE#         1565
  C:76FCH         LINE#         1566
  -------         ENDPROC       RETURN_TWO_MENU_F7_E3
  -------         PROC          RETURN_TWO_MENU_F7_E4
  -------         DO            
  D:0007H         SYMBOL        temp
  -------         ENDDO         
  C:76FDH         LINE#         1568
  C:76FDH         LINE#         1569
  C:76FDH         LINE#         1570
  C:76FDH         LINE#         1571
  C:7702H         LINE#         1572
  C:7702H         LINE#         1573
  -------         ENDPROC       RETURN_TWO_MENU_F7_E4
  -------         PROC          RETURN_TWO_MENU_F8_E1
  -------         DO            
  D:0007H         SYMBOL        temp
  -------         ENDDO         
  C:7703H         LINE#         1575
  C:7703H         LINE#         1576
  C:7703H         LINE#         1577
  C:7703H         LINE#         1578
  C:7708H         LINE#         1579
  C:7708H         LINE#         1580
  -------         ENDPROC       RETURN_TWO_MENU_F8_E1
  -------         PROC          RETURN_TWO_MENU_F8_E2
  -------         DO            
  D:0007H         SYMBOL        temp
  -------         ENDDO         
  C:7709H         LINE#         1582
  C:7709H         LINE#         1583
  C:7709H         LINE#         1584
  C:7709H         LINE#         1585
  C:770EH         LINE#         1586
  C:770EH         LINE#         1587
  -------         ENDPROC       RETURN_TWO_MENU_F8_E2
  -------         PROC          RETURN_SOUND_TABLE
  -------         DO            
  D:0007H         SYMBOL        temp
  -------         ENDDO         
  C:770FH         LINE#         1589
  C:770FH         LINE#         1590
  C:770FH         LINE#         1591
  C:770FH         LINE#         1592
  C:7714H         LINE#         1593
  C:7714H         LINE#         1594
BL51 BANKED LINKER/LOCATER V6.22                                                      04/11/2016  14:38:45  PAGE 57


  -------         ENDPROC       RETURN_SOUND_TABLE
  -------         PROC          _SET_SOUND_TABLE
  D:0007H         SYMBOL        temp
  C:7715H         LINE#         1596
  C:7715H         LINE#         1597
  C:7715H         LINE#         1598
  C:771AH         LINE#         1599
  -------         ENDPROC       _SET_SOUND_TABLE
  -------         PROC          RETURN_TWO_MENU_FC_E1
  -------         DO            
  D:0007H         SYMBOL        temp
  -------         ENDDO         
  C:771BH         LINE#         1601
  C:771BH         LINE#         1602
  C:771BH         LINE#         1603
  C:771BH         LINE#         1604
  C:7720H         LINE#         1605
  C:7720H         LINE#         1606
  -------         ENDPROC       RETURN_TWO_MENU_FC_E1
  -------         PROC          RETURN_TWO_MENU_FB_E1
  -------         DO            
  D:0007H         SYMBOL        temp
  -------         ENDDO         
  C:7721H         LINE#         1608
  C:7721H         LINE#         1609
  C:7721H         LINE#         1610
  C:7721H         LINE#         1611
  C:7726H         LINE#         1612
  C:7726H         LINE#         1613
  -------         ENDPROC       RETURN_TWO_MENU_FB_E1
  -------         PROC          ENV_LOAD
  C:5DD2H         LINE#         1615
  C:5DD2H         LINE#         1616
  C:5DD2H         LINE#         1618
  C:5DDAH         LINE#         1619
  C:5DE2H         LINE#         1620
  C:5DEAH         LINE#         1621
  C:5DF2H         LINE#         1622
  C:5DFAH         LINE#         1623
  C:5E02H         LINE#         1624
  C:5E0AH         LINE#         1625
  C:5E12H         LINE#         1626
  C:5E1AH         LINE#         1627
  C:5E22H         LINE#         1628
  C:5E2AH         LINE#         1629
  C:5E32H         LINE#         1630
  C:5E3AH         LINE#         1631
  C:5E42H         LINE#         1632
  C:5E4AH         LINE#         1633
  C:5E52H         LINE#         1635
  C:5E67H         LINE#         1636
  -------         ENDPROC       ENV_LOAD
  -------         PROC          ENV_INIT
  C:3C2BH         LINE#         1639
  C:3C2BH         LINE#         1640
  C:3C2BH         LINE#         1641
  C:3C40H         LINE#         1642
BL51 BANKED LINKER/LOCATER V6.22                                                      04/11/2016  14:38:45  PAGE 58


  C:3C43H         LINE#         1643
  C:3C58H         LINE#         1644
  C:3C5BH         LINE#         1645
  C:3C70H         LINE#         1646
  C:3C73H         LINE#         1648
  C:3C7CH         LINE#         1649
  C:3C84H         LINE#         1650
  C:3C8CH         LINE#         1651
  C:3C94H         LINE#         1652
  C:3C9CH         LINE#         1653
  C:3CA4H         LINE#         1654
  C:3CACH         LINE#         1655
  C:3CB4H         LINE#         1656
  C:3CBCH         LINE#         1657
  C:3CC4H         LINE#         1658
  C:3CCCH         LINE#         1659
  C:3CD4H         LINE#         1660
  C:3CDCH         LINE#         1661
  C:3CE4H         LINE#         1662
  C:3CECH         LINE#         1663
  C:3CF4H         LINE#         1665
  C:3CFAH         LINE#         1666
  C:3CFAH         LINE#         1667
  C:3D00H         LINE#         1668
  C:3D00H         LINE#         1669
  C:3D09H         LINE#         1670
  C:3D09H         LINE#         1671
  C:3D0FH         LINE#         1672
  C:3D0FH         LINE#         1673
  C:3D18H         LINE#         1674
  C:3D18H         LINE#         1675
  C:3D1EH         LINE#         1676
  C:3D1EH         LINE#         1677
  C:3D27H         LINE#         1678
  C:3D27H         LINE#         1679
  C:3D2DH         LINE#         1680
  C:3D2DH         LINE#         1681
  C:3D36H         LINE#         1682
  C:3D36H         LINE#         1683
  C:3D3BH         LINE#         1684
  C:3D3BH         LINE#         1685
  C:3D44H         LINE#         1686
  C:3D44H         LINE#         1687
  C:3D4AH         LINE#         1688
  C:3D4AH         LINE#         1704
  C:3D53H         LINE#         1705
  C:3D53H         LINE#         1706
  C:3D58H         LINE#         1707
  C:3D58H         LINE#         1708
  C:3D61H         LINE#         1709
  C:3D61H         LINE#         1710
  C:3D67H         LINE#         1711
  C:3D67H         LINE#         1712
  C:3D70H         LINE#         1713
  C:3D70H         LINE#         1714
  C:3D76H         LINE#         1715
  C:3D76H         LINE#         1716
BL51 BANKED LINKER/LOCATER V6.22                                                      04/11/2016  14:38:45  PAGE 59


  C:3D7FH         LINE#         1717
  C:3D7FH         LINE#         1718
  C:3D84H         LINE#         1719
  C:3D84H         LINE#         1720
  C:3D8DH         LINE#         1721
  C:3D8DH         LINE#         1722
  C:3D92H         LINE#         1723
  C:3D92H         LINE#         1724
  C:3D9BH         LINE#         1725
  C:3D9BH         LINE#         1726
  C:3DA0H         LINE#         1727
  C:3DA0H         LINE#         1728
  C:3DA9H         LINE#         1729
  C:3DA9H         LINE#         1730
  C:3DAFH         LINE#         1731
  C:3DAFH         LINE#         1732
  C:3DB8H         LINE#         1733
  C:3DB8H         LINE#         1734
  C:3DBEH         LINE#         1735
  C:3DBEH         LINE#         1736
  C:3DC7H         LINE#         1737
  C:3DC7H         LINE#         1738
  C:3DCDH         LINE#         1739
  C:3DCDH         LINE#         1740
  C:3DD6H         LINE#         1741
  C:3DD6H         LINE#         1742
  C:3DDCH         LINE#         1743
  C:3DDCH         LINE#         1744
  -------         ENDPROC       ENV_INIT
  -------         PROC          VAR_INIT
  C:6455H         LINE#         1747
  C:6455H         LINE#         1748
  C:6455H         LINE#         1749
  C:645BH         LINE#         1750
  C:645FH         LINE#         1752
  C:6464H         LINE#         1753
  C:6468H         LINE#         1755
  C:646CH         LINE#         1756
  C:6471H         LINE#         1757
  C:6476H         LINE#         1758
  C:647CH         LINE#         1759
  C:6482H         LINE#         1760
  C:6486H         LINE#         1761
  C:6489H         LINE#         1762
  C:648BH         LINE#         1764
  C:6491H         LINE#         1765
  C:6496H         LINE#         1766
  C:649AH         LINE#         1767
  C:649EH         LINE#         1769
  C:64A4H         LINE#         1771
  C:64A9H         LINE#         1774
  -------         ENDPROC       VAR_INIT
  -------         PROC          KEY_INIT
  -------         DO            
  D:0007H         SYMBOL        i
  -------         ENDDO         
  C:6869H         LINE#         1776
BL51 BANKED LINKER/LOCATER V6.22                                                      04/11/2016  14:38:45  PAGE 60


  C:6869H         LINE#         1777
  C:6869H         LINE#         1779
  C:6869H         LINE#         1780
  C:6869H         LINE#         1781
  C:6874H         LINE#         1782
  C:6874H         LINE#         1784
  C:687AH         LINE#         1785
  C:687DH         LINE#         1786
  C:6881H         LINE#         1787
  C:6885H         LINE#         1788
  C:6889H         LINE#         1789
  C:688CH         LINE#         1790
  C:688EH         LINE#         1791
  C:6892H         LINE#         1792
  C:6896H         LINE#         1793
  C:6898H         LINE#         1794
  C:689AH         LINE#         1795
  C:689CH         LINE#         1796
  C:689EH         LINE#         1797
  C:68A0H         LINE#         1798
  C:68A2H         LINE#         1799
  C:68A4H         LINE#         1800
  -------         ENDPROC       KEY_INIT
  -------         ENDMOD        KEY

  -------         MODULE        TM1629
  C:0000H         SYMBOL        _ICE_DUMMY_
  C:7234H         PUBLIC        fun4
  C:7252H         PUBLIC        fun5
  D:0080H         PUBLIC        P0
  C:7270H         PUBLIC        fun6
  D:0090H         PUBLIC        P1
  C:728EH         PUBLIC        fun7
  C:75B8H         PUBLIC        tm1629_display_buff_clear
  D:00A0H         PUBLIC        P2
  C:72ACH         PUBLIC        fun8
  C:7365H         PUBLIC        _send_command_2
  D:00B0H         PUBLIC        P3
  C:72CAH         PUBLIC        fun9
  C:737EH         PUBLIC        _send_command_3
  D:00C0H         PUBLIC        P4
  D:00C8H         PUBLIC        P5
  D:00E8H         PUBLIC        P6
  D:00F8H         PUBLIC        P7
  C:7477H         PUBLIC        _Tm1629_delay
  C:62ECH         PUBLIC        _Show_three_number
  C:5513H         PUBLIC        CycleDown
  D:00A8H         PUBLIC        IE
  X:0000H         PUBLIC        await_time_table
  D:00B8H         PUBLIC        IP
  X:0001H         PUBLIC        buf_display
  X:0031H         PUBLIC        CODE
  X:0046H         PUBLIC        multiple_key
  X:0056H         PUBLIC        display_ram
  C:6BCEH         PUBLIC        tm1629_clear
  C:560CH         PUBLIC        _decoder_temp_to_mcuram
  D:00D8H         PUBLIC        CCON
BL51 BANKED LINKER/LOCATER V6.22                                                      04/11/2016  14:38:45  PAGE 61


  X:0376H         PUBLIC        Two_Menu_FE_status
  C:72E8H         PUBLIC        fun10
  C:6AC0H         PUBLIC        fun20
  C:001EH         PUBLIC        fun11
  C:77CCH         PUBLIC        fun30
  C:7489H         PUBLIC        fun21
  C:77BDH         PUBLIC        fun12
  C:77F4H         PUBLIC        fun40
  C:7608H         PUBLIC        fun31
  C:749BH         PUBLIC        fun22
  C:77C2H         PUBLIC        fun13
  C:69BFH         PUBLIC        tm1629_await
  C:7113H         PUBLIC        fun50
  C:77F9H         PUBLIC        fun41
  C:7610H         PUBLIC        fun32
  C:74ADH         PUBLIC        fun23
  C:000EH         PUBLIC        fun14
  C:63ADH         PUBLIC        _Show_four_number
  B:0080H.0       PUBLIC        TM1629_CLK
  C:6CE7H         PUBLIC        fun60
  C:7135H         PUBLIC        fun51
  C:759CH         PUBLIC        fun42
  C:77D1H         PUBLIC        fun33
  C:74BFH         PUBLIC        fun24
  C:668AH         PUBLIC        fun15
  X:0377H         PUBLIC        single_key
  X:0387H         PUBLIC        INIT_CODE
  C:3491H         PUBLIC        _Cancel_funtion
  C:6DFFH         PUBLIC        fun70
  C:7041H         PUBLIC        fun61
  C:7157H         PUBLIC        fun52
  C:77FEH         PUBLIC        fun43
  C:77D6H         PUBLIC        fun34
  C:74D1H         PUBLIC        fun25
  C:6919H         PUBLIC        fun16
  B:0080H.1       PUBLIC        TM1629_DIO
  C:6F3FH         PUBLIC        fun80
  C:6E27H         PUBLIC        fun71
  C:6D0FH         PUBLIC        fun62
  C:0026H         PUBLIC        fun53
  C:7803H         PUBLIC        fun44
  C:77DBH         PUBLIC        fun35
  C:74E3H         PUBLIC        fun26
  C:6951H         PUBLIC        fun17
  X:038FH         PUBLIC        SHANGSHUO
  C:7658H         PUBLIC        fun90
  C:70F0H         PUBLIC        fun81
  C:6E4FH         PUBLIC        fun72
  C:6D37H         PUBLIC        fun63
  C:6C1FH         PUBLIC        fun54
  C:7808H         PUBLIC        fun45
  C:77E0H         PUBLIC        fun36
  C:74F5H         PUBLIC        fun27
  C:6FD7H         PUBLIC        fun18
  D:0098H         PUBLIC        SCON
  C:7660H         PUBLIC        fun91
  C:7628H         PUBLIC        fun82
BL51 BANKED LINKER/LOCATER V6.22                                                      04/11/2016  14:38:45  PAGE 62


  C:70AAH         PUBLIC        fun73
  C:6D5FH         PUBLIC        fun64
  C:6C47H         PUBLIC        fun55
  C:733FH         PUBLIC        fun46
  C:77E5H         PUBLIC        fun37
  C:7507H         PUBLIC        fun28
  C:6BF7H         PUBLIC        fun19
  C:73A4H         PUBLIC        _Show_one_number
  D:0088H         PUBLIC        TCON
  C:7668H         PUBLIC        fun92
  C:7630H         PUBLIC        fun83
  C:6E77H         PUBLIC        fun74
  C:7064H         PUBLIC        fun65
  C:6C6FH         PUBLIC        fun56
  C:7618H         PUBLIC        fun47
  C:77EAH         PUBLIC        fun38
  C:77C7H         PUBLIC        fun29
  B:00A0H.4       PUBLIC        P24
  C:68A5H         PUBLIC        fun93
  C:7638H         PUBLIC        fun84
  C:6E9FH         PUBLIC        fun75
  C:6D87H         PUBLIC        fun66
  C:701EH         PUBLIC        fun57
  C:7620H         PUBLIC        fun48
  C:77EFH         PUBLIC        fun39
  C:6989H         PUBLIC        fun94
  C:7640H         PUBLIC        fun85
  C:6EC7H         PUBLIC        fun76
  C:6DAFH         PUBLIC        fun67
  C:6C97H         PUBLIC        fun58
  C:6550H         PUBLIC        fun49
  C:442EH         PUBLIC        tm1629_load
  B:0090H.7       PUBLIC        P17
  C:5A2CH         PUBLIC        CycleUp
  C:663CH         PUBLIC        fun95
  C:7648H         PUBLIC        fun86
  C:70CDH         PUBLIC        fun77
  C:6DD7H         PUBLIC        fun68
  C:6CBFH         PUBLIC        fun59
  C:780DH         PUBLIC        fun96
  C:7306H         PUBLIC        fun87
  C:6EEFH         PUBLIC        fun78
  C:7087H         PUBLIC        fun69
  B:00C8H.5       PUBLIC        P55
  C:7670H         PUBLIC        fun97
  C:7650H         PUBLIC        fun88
  C:6F17H         PUBLIC        fun79
  C:7812H         PUBLIC        fun98
  C:7519H         PUBLIC        fun89
  C:7678H         PUBLIC        fun99
  B:0080H.2       PUBLIC        TM1629_STB
  C:73D1H         PUBLIC        Show_off
  C:42BEH         PUBLIC        _Search_funtion
  C:719AH         SYMBOL        _?ix1000
  C:6B4DH         PUBLIC        _writeDataTo1629
  C:71A2H         SYMBOL        _?ix1001
  C:71A8H         SYMBOL        _?ix1002
BL51 BANKED LINKER/LOCATER V6.22                                                      04/11/2016  14:38:45  PAGE 63


  C:71AEH         SYMBOL        _?ix1003
  C:71B4H         SYMBOL        _?ix1004
  C:628DH         PUBLIC        tm1629_init
  C:6AF1H         PUBLIC        _Show_two_number
  C:65A9H         PUBLIC        _mcuram_to_mcuram_down
  C:6B78H         PUBLIC        _writeDataTo1629_2
  C:6BA3H         PUBLIC        _writeDataTo1629_3
  C:4142H         PUBLIC        CycleProcess
  C:71D9H         PUBLIC        _tm1629_E
  C:7817H         PUBLIC        fun100
  C:7680H         PUBLIC        fun101
  C:781CH         PUBLIC        fun102
  C:73FDH         PUBLIC        fun103
  C:752BH         PUBLIC        fun104
  C:5AF2H         PUBLIC        fun105
  C:743BH         PUBLIC        Show_on
  X:0391H         PUBLIC        Two_Menu_FE_E2_table
  C:3DE8H         PUBLIC        LogoutProcess
  C:5E6AH         PUBLIC        fun106
  C:36BFH         PUBLIC        _mcuram_to_displayram
  C:3F99H         PUBLIC        Display_time
  C:73C4H         PUBLIC        _send_command
  B:0080H.3       PUBLIC        TM1629_STB2
  B:00C8H.4       PUBLIC        TM1629_STB3
  X:0392H         PUBLIC        Two_Menu_FE_E1_addr
  X:0394H         PUBLIC        Two_Menu_FE_E2_data
  X:039EH         PUBLIC        Two_Menu_FE_E2_addr
  C:671EH         PUBLIC        _display_light
  X:03A0H         PUBLIC        Two_Menu_F8_E1_save
  C:6FB3H         PUBLIC        fun0
  C:5C7BH         PUBLIC        display
  D:00D0H         PUBLIC        PSW
  C:0006H         PUBLIC        fun1
  C:71BAH         PUBLIC        _tm1629_f
  C:71F8H         PUBLIC        fun2
  C:60ACH         PUBLIC        Logout
  C:7216H         PUBLIC        fun3
  C:65F7H         PUBLIC        _mcuram_to_mcuram_up
  -------         PROC          _WRITEDATATO1629
  D:0007H         SYMBOL        p
  -------         DO            
  D:0004H         SYMBOL        i
  -------         ENDDO         
  C:6B4DH         LINE#         31
  C:6B4DH         LINE#         32
  C:6B4DH         LINE#         34
  C:6B4FH         LINE#         35
  C:6B52H         LINE#         36
  C:6B52H         LINE#         37
  C:6B54H         LINE#         38
  C:6B58H         LINE#         39
  C:6B5CH         LINE#         41
  C:6B5EH         LINE#         42
  C:6B5FH         LINE#         43
  C:6B60H         LINE#         44
  C:6B61H         LINE#         45
  C:6B62H         LINE#         46
BL51 BANKED LINKER/LOCATER V6.22                                                      04/11/2016  14:38:45  PAGE 64


  C:6B64H         LINE#         47
  C:6B68H         LINE#         48
  C:6B73H         LINE#         49
  C:6B75H         LINE#         50
  C:6B77H         LINE#         51
  -------         ENDPROC       _WRITEDATATO1629
  -------         PROC          _WRITEDATATO1629_2
  D:0007H         SYMBOL        p
  -------         DO            
  D:0004H         SYMBOL        i
  -------         ENDDO         
  C:6B78H         LINE#         53
  C:6B78H         LINE#         54
  C:6B78H         LINE#         56
  C:6B7AH         LINE#         57
  C:6B7DH         LINE#         58
  C:6B7DH         LINE#         59
  C:6B7FH         LINE#         60
  C:6B83H         LINE#         61
  C:6B87H         LINE#         63
  C:6B89H         LINE#         64
  C:6B8AH         LINE#         65
  C:6B8BH         LINE#         66
  C:6B8CH         LINE#         67
  C:6B8DH         LINE#         68
  C:6B8FH         LINE#         69
  C:6B93H         LINE#         70
  C:6B9EH         LINE#         71
  C:6BA0H         LINE#         72
  C:6BA2H         LINE#         73
  -------         ENDPROC       _WRITEDATATO1629_2
  -------         PROC          _WRITEDATATO1629_3
  D:0007H         SYMBOL        p
  -------         DO            
  D:0004H         SYMBOL        i
  -------         ENDDO         
  C:6BA3H         LINE#         75
  C:6BA3H         LINE#         76
  C:6BA3H         LINE#         78
  C:6BA5H         LINE#         79
  C:6BA8H         LINE#         80
  C:6BA8H         LINE#         81
  C:6BAAH         LINE#         82
  C:6BAEH         LINE#         83
  C:6BB2H         LINE#         85
  C:6BB4H         LINE#         86
  C:6BB5H         LINE#         87
  C:6BB6H         LINE#         88
  C:6BB7H         LINE#         89
  C:6BB8H         LINE#         90
  C:6BBAH         LINE#         91
  C:6BBEH         LINE#         92
  C:6BC9H         LINE#         93
  C:6BCBH         LINE#         94
  C:6BCDH         LINE#         95
  -------         ENDPROC       _WRITEDATATO1629_3
  -------         PROC          L?0499
BL51 BANKED LINKER/LOCATER V6.22                                                      04/11/2016  14:38:45  PAGE 65


  -------         ENDPROC       L?0499
  -------         PROC          _SEND_COMMAND
  D:0007H         SYMBOL        word
  C:73C4H         LINE#         97
  C:73C4H         LINE#         98
  C:73C4H         LINE#         99
  C:73C6H         LINE#         100
  C:73CCH         LINE#         101
  C:73CEH         LINE#         102
  -------         ENDPROC       _SEND_COMMAND
  -------         PROC          L?0496
  -------         ENDPROC       L?0496
  -------         PROC          _SEND_COMMAND_2
  D:0007H         SYMBOL        word
  C:7365H         LINE#         105
  C:7365H         LINE#         106
  C:7365H         LINE#         107
  C:7367H         LINE#         108
  C:736DH         LINE#         109
  C:736FH         LINE#         110
  -------         ENDPROC       _SEND_COMMAND_2
  -------         PROC          L?0497
  -------         ENDPROC       L?0497
  -------         PROC          _SEND_COMMAND_3
  D:0007H         SYMBOL        word
  C:737EH         LINE#         113
  C:737EH         LINE#         114
  C:737EH         LINE#         115
  C:7380H         LINE#         116
  C:7386H         LINE#         117
  C:7388H         LINE#         118
  -------         ENDPROC       _SEND_COMMAND_3
  C:5C76H         SYMBOL        L?0492
  C:5C77H         SYMBOL        L?0493
  -------         PROC          L?0491
  -------         ENDPROC       L?0491
  C:5C76H         SYMBOL        L?0492
  C:5C77H         SYMBOL        L?0493
  -------         PROC          DISPLAY
  -------         DO            
  D:0003H         SYMBOL        i
  D:0006H         SYMBOL        temp
  D:0007H         SYMBOL        buf_temp
  -------         ENDDO         
  C:5C7BH         LINE#         121
  C:5C7BH         LINE#         122
  C:5C7BH         LINE#         127
  C:5C7EH         LINE#         128
  C:5C7EH         LINE#         129
  C:5C81H         LINE#         131
  C:5C89H         LINE#         132
  C:5C91H         LINE#         133
  C:5C99H         LINE#         134
  C:5C9EH         LINE#         135
  C:5CA6H         LINE#         136
  C:5CABH         LINE#         144
  C:5CADH         LINE#         145
BL51 BANKED LINKER/LOCATER V6.22                                                      04/11/2016  14:38:45  PAGE 66


  C:5CADH         LINE#         146
  C:5CBCH         LINE#         147
  C:5CCBH         LINE#         148
  C:5CD0H         LINE#         149
  C:5CD4H         LINE#         150
  C:5CD4H         LINE#         152
  C:5CD4H         LINE#         153
  C:5CD7H         LINE#         154
  C:5CD9H         LINE#         155
  C:5CD9H         LINE#         156
  C:5CE8H         LINE#         157
  C:5CF7H         LINE#         158
  C:5CFCH         LINE#         159
  C:5D00H         LINE#         160
  C:5D00H         LINE#         162
  C:5D00H         LINE#         163
  C:5D03H         LINE#         164
  C:5D05H         LINE#         165
  C:5D05H         LINE#         166
  C:5D14H         LINE#         167
  C:5D23H         LINE#         168
  C:5D28H         LINE#         169
  C:5D2FH         LINE#         170
  C:5D31H         LINE#         171
  -------         ENDPROC       DISPLAY
  -------         PROC          _DISPLAY_LIGHT
  D:0006H         SYMBOL        temp
  -------         DO            
  D:0003H         SYMBOL        i
  -------         ENDDO         
  C:671EH         LINE#         173
  C:671EH         LINE#         174
  C:671EH         LINE#         176
  C:671EH         LINE#         177
  C:6721H         LINE#         178
  C:6723H         LINE#         179
  C:6723H         LINE#         180
  C:6728H         LINE#         181
  C:672DH         LINE#         182
  C:6732H         LINE#         183
  C:6734H         LINE#         184
  C:6734H         LINE#         186
  C:6734H         LINE#         187
  C:6737H         LINE#         188
  C:6739H         LINE#         189
  C:6739H         LINE#         190
  C:673EH         LINE#         191
  C:6743H         LINE#         192
  C:6748H         LINE#         193
  C:674AH         LINE#         194
  C:674AH         LINE#         196
  C:674AH         LINE#         197
  C:674DH         LINE#         198
  C:674FH         LINE#         199
  C:674FH         LINE#         200
  C:6754H         LINE#         201
  C:6759H         LINE#         202
BL51 BANKED LINKER/LOCATER V6.22                                                      04/11/2016  14:38:45  PAGE 67


  C:675EH         LINE#         203
  C:6763H         LINE#         204
  C:6765H         LINE#         205
  -------         ENDPROC       _DISPLAY_LIGHT
  -------         PROC          TM1629_INIT
  -------         DO            
  D:0007H         SYMBOL        i
  D:0006H         SYMBOL        j
  X:04CFH         SYMBOL        k
  -------         ENDDO         
  C:628DH         LINE#         207
  C:628DH         LINE#         208
  C:628DH         LINE#         210
  C:6292H         LINE#         211
  C:6292H         LINE#         212
  C:6294H         LINE#         213
  C:6294H         LINE#         214
  C:6296H         LINE#         215
  C:6296H         LINE#         216
  C:62BFH         LINE#         217
  C:62C4H         LINE#         218
  C:62C9H         LINE#         219
  C:62CCH         LINE#         220
  C:62D3H         LINE#         221
  C:62DAH         LINE#         222
  C:62DFH         LINE#         223
  C:62EBH         LINE#         224
  -------         ENDPROC       TM1629_INIT
  -------         PROC          _TM1629_DELAY
  D:0007H         SYMBOL        k
  -------         DO            
  D:0006H         SYMBOL        i
  D:0005H         SYMBOL        j
  -------         ENDDO         
  C:7477H         LINE#         227
  C:7477H         LINE#         228
  C:7477H         LINE#         230
  C:747DH         LINE#         231
  C:747DH         LINE#         232
  C:747FH         LINE#         233
  C:747FH         LINE#         234
  C:7481H         LINE#         235
  C:7481H         LINE#         238
  C:7483H         LINE#         239
  C:7485H         LINE#         240
  C:7488H         LINE#         241
  -------         ENDPROC       _TM1629_DELAY
  -------         PROC          TM1629_CLEAR
  -------         DO            
  D:0007H         SYMBOL        i
  D:0006H         SYMBOL        j
  -------         ENDDO         
  C:6BCEH         LINE#         243
  C:6BCEH         LINE#         244
  C:6BCEH         LINE#         246
  C:6BD0H         LINE#         247
  C:6BD0H         LINE#         248
BL51 BANKED LINKER/LOCATER V6.22                                                      04/11/2016  14:38:45  PAGE 68


  C:6BD2H         LINE#         249
  C:6BD2H         LINE#         250
  C:6BECH         LINE#         251
  C:6BF1H         LINE#         252
  C:6BF6H         LINE#         253
  -------         ENDPROC       TM1629_CLEAR
  -------         PROC          TM1629_DISPLAY_BUFF_CLEAR
  -------         DO            
  D:0007H         SYMBOL        i
  -------         ENDDO         
  C:75B8H         LINE#         255
  C:75B8H         LINE#         256
  C:75B8H         LINE#         258
  C:75B8H         LINE#         259
  C:75C2H         LINE#         260
  -------         ENDPROC       TM1629_DISPLAY_BUFF_CLEAR
  -------         PROC          TM1629_AWAIT
  -------         DO            
  D:0007H         SYMBOL        i
  D:0007H         SYMBOL        await_number_table_temp
  -------         ENDDO         
  C:69BFH         LINE#         262
  C:69BFH         LINE#         263
  C:69BFH         LINE#         265
  C:69C1H         LINE#         266
  C:69C4H         LINE#         267
  C:69C9H         LINE#         268
  C:69C9H         LINE#         270
  C:69CCH         LINE#         271
  C:69D3H         LINE#         272
  C:69DFH         LINE#         273
  C:69E2H         LINE#         274
  C:69E7H         LINE#         275
  C:69EDH         LINE#         276
  C:69F1H         LINE#         277
  C:69F3H         LINE#         278
  C:69F3H         LINE#         279
  -------         ENDPROC       TM1629_AWAIT
  -------         PROC          DISPLAY_TIME
  C:3F99H         LINE#         281
  C:3F99H         LINE#         282
  C:3F99H         LINE#         283
  C:3FA2H         LINE#         284
  C:3FA2H         LINE#         285
  C:3FA5H         LINE#         286
  C:3FA8H         LINE#         287
  C:3FB0H         LINE#         288
  C:3FB8H         LINE#         289
  C:3FCFH         LINE#         290
  C:3FE4H         LINE#         293
  C:3FFBH         LINE#         294
  C:4010H         LINE#         297
  C:4027H         LINE#         298
  C:403BH         LINE#         300
  C:403BH         LINE#         302
  C:403BH         LINE#         303
  C:403BH         LINE#         304
BL51 BANKED LINKER/LOCATER V6.22                                                      04/11/2016  14:38:45  PAGE 69


  C:403BH         LINE#         305
  C:403BH         LINE#         307
  C:403BH         LINE#         309
  C:403EH         LINE#         311
  C:403EH         LINE#         312
  C:4041H         LINE#         313
  C:4044H         LINE#         314
  C:404CH         LINE#         315
  C:4054H         LINE#         316
  C:406BH         LINE#         317
  C:4080H         LINE#         320
  C:4097H         LINE#         321
  C:40ACH         LINE#         324
  C:40C3H         LINE#         325
  C:40D8H         LINE#         327
  C:40EAH         LINE#         329
  C:4101H         LINE#         330
  C:4116H         LINE#         331
  C:412DH         LINE#         332
  C:413EH         LINE#         334
  C:4141H         LINE#         335
  C:4141H         LINE#         336
  -------         ENDPROC       DISPLAY_TIME
  -------         PROC          _TM1629_F
  D:0005H         SYMBOL        f_number
  C:71BAH         LINE#         338
  C:71BCH         LINE#         339
  C:71BCH         LINE#         340
  C:71BFH         LINE#         346
  C:71C7H         LINE#         347
  C:71D6H         LINE#         349
  -------         ENDPROC       _TM1629_F
  -------         PROC          _TM1629_E
  D:0005H         SYMBOL        f_number
  C:71D9H         LINE#         352
  C:71DBH         LINE#         353
  C:71DBH         LINE#         354
  C:71DEH         LINE#         360
  C:71E6H         LINE#         361
  C:71F5H         LINE#         363
  -------         ENDPROC       _TM1629_E
  -------         PROC          SHOW_ON
  C:743BH         LINE#         365
  C:743BH         LINE#         366
  C:743BH         LINE#         367
  C:743EH         LINE#         373
  C:7446H         LINE#         374
  C:744CH         LINE#         376
  -------         ENDPROC       SHOW_ON
  -------         PROC          SHOW_OFF
  C:73D1H         LINE#         379
  C:73D1H         LINE#         380
  C:73D1H         LINE#         381
  C:73D4H         LINE#         387
  C:73DCH         LINE#         388
  C:73E4H         LINE#         390
  -------         ENDPROC       SHOW_OFF
BL51 BANKED LINKER/LOCATER V6.22                                                      04/11/2016  14:38:45  PAGE 70


  -------         PROC          _SHOW_ONE_NUMBER
  D:0005H         SYMBOL        f_number
  C:73A4H         LINE#         393
  C:73A6H         LINE#         394
  C:73A6H         LINE#         395
  C:73A9H         LINE#         401
  C:73B8H         LINE#         403
  -------         ENDPROC       _SHOW_ONE_NUMBER
  -------         PROC          _SHOW_TWO_NUMBER
  D:0005H         SYMBOL        f_number
  C:6AF1H         LINE#         406
  C:6AF3H         LINE#         407
  C:6AF3H         LINE#         408
  C:6AF6H         LINE#         414
  C:6B09H         LINE#         415
  C:6B1EH         LINE#         417
  -------         ENDPROC       _SHOW_TWO_NUMBER
  -------         PROC          _SHOW_THREE_NUMBER
  D:0002H         SYMBOL        f_number
  C:62ECH         LINE#         421
  C:62F0H         LINE#         422
  C:62F0H         LINE#         423
  C:62F3H         LINE#         430
  C:630DH         LINE#         431
  C:632EH         LINE#         432
  C:6348H         LINE#         434
  -------         ENDPROC       _SHOW_THREE_NUMBER
  C:63A7H         SYMBOL        L?0495
  -------         PROC          L?0494
  -------         ENDPROC       L?0494
  C:63A7H         SYMBOL        L?0495
  -------         PROC          _SHOW_FOUR_NUMBER
  D:0001H         SYMBOL        temp
  C:63ADH         LINE#         437
  C:63ADH         LINE#         438
  C:63ADH         LINE#         439
  C:63B0H         LINE#         447
  C:63C1H         LINE#         448
  C:63D5H         LINE#         449
  C:63E9H         LINE#         450
  C:63FDH         LINE#         452
  -------         ENDPROC       _SHOW_FOUR_NUMBER
  -------         PROC          TM1629_LOAD
  C:442EH         LINE#         455
  C:442EH         LINE#         456
  C:442EH         LINE#         457
  C:4431H         LINE#         458
  C:4437H         LINE#         459
  C:444EH         LINE#         460
  C:4454H         LINE#         461
  C:446BH         LINE#         462
  C:4471H         LINE#         463
  C:4488H         LINE#         464
  C:448EH         LINE#         465
  C:44A5H         LINE#         466
  C:44ABH         LINE#         467
  C:44C2H         LINE#         468
BL51 BANKED LINKER/LOCATER V6.22                                                      04/11/2016  14:38:45  PAGE 71


  C:44C8H         LINE#         469
  C:44DFH         LINE#         470
  C:44E5H         LINE#         471
  C:44FCH         LINE#         472
  C:4502H         LINE#         473
  C:4519H         LINE#         474
  C:451FH         LINE#         475
  C:4536H         LINE#         476
  C:453CH         LINE#         477
  C:4553H         LINE#         478
  C:4559H         LINE#         479
  C:4570H         LINE#         480
  C:4576H         LINE#         481
  C:458DH         LINE#         485
  -------         ENDPROC       TM1629_LOAD
  -------         PROC          _MCURAM_TO_DISPLAYRAM
  X:0506H         SYMBOL        a
  X:0509H         SYMBOL        b
  C:36BFH         LINE#         487
  C:36CAH         LINE#         488
  C:36CAH         LINE#         558
  C:36F3H         LINE#         559
  C:3721H         LINE#         560
  C:374FH         LINE#         561
  C:377DH         LINE#         563
  C:37AEH         LINE#         564
  C:37AEH         LINE#         565
  C:37AEH         LINE#         566
  C:37C7H         LINE#         567
  C:37C7H         LINE#         569
  C:37CAH         LINE#         570
  C:37CAH         LINE#         571
  C:37E3H         LINE#         572
  C:37FCH         LINE#         573
  C:3815H         LINE#         574
  C:3820H         LINE#         575
  C:3822H         LINE#         576
  C:3822H         LINE#         577
  C:383BH         LINE#         578
  C:3854H         LINE#         579
  C:3865H         LINE#         580
  C:3867H         LINE#         581
  C:3867H         LINE#         582
  C:3878H         LINE#         583
  C:387AH         LINE#         584
  C:387AH         LINE#         585
  C:3893H         LINE#         586
  C:3893H         LINE#         587
  C:3893H         LINE#         588
  C:3893H         LINE#         591
  -------         ENDPROC       _MCURAM_TO_DISPLAYRAM
  -------         PROC          _DECODER_TEMP_TO_MCURAM
  X:04F8H         SYMBOL        a
  X:04FBH         SYMBOL        index
  C:560CH         LINE#         593
  C:5617H         LINE#         594
  C:5617H         LINE#         595
BL51 BANKED LINKER/LOCATER V6.22                                                      04/11/2016  14:38:45  PAGE 72


  C:5633H         LINE#         596
  C:5657H         LINE#         597
  C:567BH         LINE#         598
  C:569FH         LINE#         599
  C:56C3H         LINE#         600
  -------         ENDPROC       _DECODER_TEMP_TO_MCURAM
  -------         PROC          L?0500
  -------         ENDPROC       L?0500
  -------         PROC          _MCURAM_TO_MCURAM_DOWN
  D:0001H         SYMBOL        a
  C:65A9H         LINE#         603
  C:65A9H         LINE#         604
  C:65A9H         LINE#         605
  C:65B2H         LINE#         606
  C:65BEH         LINE#         607
  C:65CAH         LINE#         608
  C:65D6H         LINE#         609
  C:65E2H         LINE#         610
  -------         ENDPROC       _MCURAM_TO_MCURAM_DOWN
  -------         PROC          L?0498
  -------         ENDPROC       L?0498
  -------         PROC          _MCURAM_TO_MCURAM_UP
  D:0001H         SYMBOL        a
  C:65F7H         LINE#         614
  C:65F7H         LINE#         615
  C:65F7H         LINE#         616
  C:6600H         LINE#         617
  C:660CH         LINE#         618
  C:6618H         LINE#         619
  C:6624H         LINE#         620
  C:6630H         LINE#         621
  -------         ENDPROC       _MCURAM_TO_MCURAM_UP
  -------         PROC          CYCLEPROCESS
  -------         DO            
  X:04F8H         SYMBOL        i
  X:04F9H         SYMBOL        index
  X:04FAH         SYMBOL        f5_xunhuan
  X:04FBH         SYMBOL        f4_xiaohao
  D:0007H         SYMBOL        logout_cycle_table_temp
  X:04FCH         SYMBOL        temp
  X:0504H         SYMBOL        Two_Menu_F6_E3_temp
  X:0505H         SYMBOL        Two_Menu_F6_E1_temp
  -------         ENDDO         
  C:4142H         LINE#         624
  C:4142H         LINE#         625
  C:4142H         LINE#         628
  C:4155H         LINE#         629
  C:415AH         LINE#         630
  C:415CH         LINE#         632
  C:4164H         LINE#         633
  C:416CH         LINE#         635
  C:4174H         LINE#         636
  C:417CH         LINE#         637
  C:417FH         LINE#         639
  C:41B2H         LINE#         640
  C:41B2H         LINE#         641
  C:41C1H         LINE#         642
BL51 BANKED LINKER/LOCATER V6.22                                                      04/11/2016  14:38:45  PAGE 73


  C:41C1H         LINE#         643
  C:41D3H         LINE#         644
  C:41D3H         LINE#         645
  C:41D9H         LINE#         646
  C:41DBH         LINE#         647
  C:41DBH         LINE#         648
  C:41E3H         LINE#         650
  C:41E8H         LINE#         651
  C:41E8H         LINE#         652
  C:4222H         LINE#         653
  C:422CH         LINE#         655
  C:423EH         LINE#         656
  C:423EH         LINE#         657
  C:4253H         LINE#         658
  C:425BH         LINE#         659
  C:4260H         LINE#         660
  C:4260H         LINE#         661
  C:427CH         LINE#         662
  C:4286H         LINE#         663
  C:4289H         LINE#         664
  C:428CH         LINE#         665
  C:4291H         LINE#         666
  C:4298H         LINE#         667
  C:4298H         LINE#         668
  C:42BDH         LINE#         669
  C:42BDH         LINE#         670
  C:42BDH         LINE#         671
  -------         ENDPROC       CYCLEPROCESS
  -------         PROC          LOGOUTPROCESS
  -------         DO            
  X:04F8H         SYMBOL        i
  X:04FAH         SYMBOL        f5_xunhuan
  X:04FBH         SYMBOL        f4_xiaohao
  X:04FCH         SYMBOL        logout_cycle_table_temp
  X:04FDH         SYMBOL        Two_Menu_F3_E2_temp
  X:04FEH         SYMBOL        Two_Menu_F3_E1_temp
  X:04FFH         SYMBOL        Two_Menu_F6_E1_temp
  X:0500H         SYMBOL        Two_Menu_F6_E2_temp
  -------         ENDDO         
  C:3DE8H         LINE#         673
  C:3DE8H         LINE#         674
  C:3DE8H         LINE#         677
  C:3DEDH         LINE#         678
  C:3DEFH         LINE#         680
  C:3DF7H         LINE#         681
  C:3DFFH         LINE#         682
  C:3E07H         LINE#         683
  C:3E0FH         LINE#         684
  C:3E17H         LINE#         685
  C:3E1FH         LINE#         687
  C:3E53H         LINE#         688
  C:3E53H         LINE#         689
  C:3E73H         LINE#         690
  C:3E73H         LINE#         691
  C:3E82H         LINE#         692
  C:3E92H         LINE#         693
  C:3EC8H         LINE#         694
BL51 BANKED LINKER/LOCATER V6.22                                                      04/11/2016  14:38:45  PAGE 74


  C:3EC8H         LINE#         695
  C:3ED4H         LINE#         696
  C:3EE4H         LINE#         697
  C:3EE7H         LINE#         698
  C:3EEAH         LINE#         699
  C:3EEFH         LINE#         700
  C:3EF5H         LINE#         701
  C:3EF5H         LINE#         702
  C:3EF9H         LINE#         703
  C:3EF9H         LINE#         704
  C:3F04H         LINE#         705
  C:3F04H         LINE#         709
  C:3F0EH         LINE#         710
  C:3F13H         LINE#         711
  C:3F20H         LINE#         712
  C:3F2AH         LINE#         713
  C:3F32H         LINE#         714
  C:3F39H         LINE#         715
  C:3F39H         LINE#         716
  C:3F58H         LINE#         717
  C:3F73H         LINE#         718
  C:3F73H         LINE#         720
  C:3F73H         LINE#         721
  C:3F98H         LINE#         722
  C:3F98H         LINE#         731
  C:3F98H         LINE#         732
  C:3F98H         LINE#         733
  -------         ENDPROC       LOGOUTPROCESS
  -------         PROC          LOGOUT
  -------         DO            
  D:0004H         SYMBOL        i
  X:04D0H         SYMBOL        Two_Menu_F3_E2_temp
  -------         ENDDO         
  C:60ACH         LINE#         739
  C:60ACH         LINE#         740
  C:60ACH         LINE#         742
  C:60B1H         LINE#         743
  C:60B9H         LINE#         745
  C:60CEH         LINE#         746
  C:60CEH         LINE#         747
  C:60DDH         LINE#         748
  C:60E4H         LINE#         749
  C:610DH         LINE#         750
  C:610DH         LINE#         751
  C:6119H         LINE#         752
  C:6120H         LINE#         753
  C:6126H         LINE#         754
  C:6129H         LINE#         755
  C:612CH         LINE#         756
  C:6132H         LINE#         757
  C:6132H         LINE#         758
  C:6136H         LINE#         759
  C:6136H         LINE#         760
  -------         ENDPROC       LOGOUT
  -------         PROC          CYCLEUP
  -------         DO            
  D:0004H         SYMBOL        i
BL51 BANKED LINKER/LOCATER V6.22                                                      04/11/2016  14:38:45  PAGE 75


  X:04D0H         SYMBOL        index
  D:0005H         SYMBOL        Two_Menu_F3_E2_temp
  X:04D1H         SYMBOL        temp
  -------         ENDDO         
  C:5A2CH         LINE#         762
  C:5A2CH         LINE#         763
  C:5A2CH         LINE#         765
  C:5A3FH         LINE#         766
  C:5A47H         LINE#         767
  C:5A4CH         LINE#         769
  C:5A53H         LINE#         770
  C:5A53H         LINE#         771
  C:5A65H         LINE#         772
  C:5A65H         LINE#         773
  C:5A6AH         LINE#         774
  C:5A6CH         LINE#         775
  C:5A6CH         LINE#         776
  C:5A6FH         LINE#         777
  C:5A71H         LINE#         778
  C:5A71H         LINE#         779
  C:5A89H         LINE#         780
  C:5A8EH         LINE#         781
  C:5A9AH         LINE#         782
  C:5A9AH         LINE#         783
  C:5AACH         LINE#         784
  C:5AAFH         LINE#         785
  C:5AB1H         LINE#         786
  C:5AB1H         LINE#         787
  C:5AE7H         LINE#         788
  C:5AECH         LINE#         789
  C:5AEFH         LINE#         790
  -------         ENDPROC       CYCLEUP
  -------         PROC          CYCLEDOWN
  -------         DO            
  X:04D0H         SYMBOL        i
  X:04D1H         SYMBOL        index
  D:0005H         SYMBOL        Two_Menu_F3_E2_temp
  X:04D2H         SYMBOL        temp
  -------         ENDDO         
  C:5513H         LINE#         793
  C:5513H         LINE#         794
  C:5513H         LINE#         796
  C:5526H         LINE#         797
  C:552EH         LINE#         798
  C:5533H         LINE#         800
  C:5541H         LINE#         801
  C:5541H         LINE#         802
  C:5553H         LINE#         803
  C:5553H         LINE#         804
  C:5559H         LINE#         805
  C:555BH         LINE#         806
  C:555BH         LINE#         807
  C:5563H         LINE#         809
  C:5568H         LINE#         810
  C:5568H         LINE#         811
  C:55A2H         LINE#         812
  C:55ACH         LINE#         814
BL51 BANKED LINKER/LOCATER V6.22                                                      04/11/2016  14:38:45  PAGE 76


  C:55BEH         LINE#         815
  C:55BEH         LINE#         816
  C:55D3H         LINE#         817
  C:55DBH         LINE#         818
  C:55E0H         LINE#         819
  C:55E0H         LINE#         820
  C:55FCH         LINE#         821
  C:5606H         LINE#         822
  C:5609H         LINE#         823
  -------         ENDPROC       CYCLEDOWN
  -------         PROC          _CANCEL_FUNTION
  X:04F8H         SYMBOL        id_number
  X:04FBH         SYMBOL        buff
  -------         DO            
  X:04FEH         SYMBOL        i
  X:0500H         SYMBOL        index
  X:0502H         SYMBOL        Two_Menu_F3_E2_temp
  X:0504H         SYMBOL        temp
  -------         ENDDO         
  C:3491H         LINE#         826
  C:349CH         LINE#         827
  C:349CH         LINE#         834
  C:34AFH         LINE#         835
  C:34BAH         LINE#         836
  C:34C5H         LINE#         838
  C:34E5H         LINE#         839
  C:34E5H         LINE#         840
  C:35AEH         LINE#         841
  C:35AEH         LINE#         842
  C:35B4H         LINE#         843
  C:35C1H         LINE#         844
  C:35C3H         LINE#         845
  C:35C3H         LINE#         846
  C:35D7H         LINE#         847
  C:35E1H         LINE#         848
  C:35E1H         LINE#         849
  C:35E4H         LINE#         852
  C:35E9H         LINE#         855
  C:35E9H         LINE#         856
  C:360EH         LINE#         857
  C:360EH         LINE#         858
  C:362DH         LINE#         859
  C:363DH         LINE#         860
  C:3651H         LINE#         861
  C:3651H         LINE#         862
  C:3668H         LINE#         863
  C:3668H         LINE#         864
  C:369AH         LINE#         865
  C:36AAH         LINE#         866
  C:36AAH         LINE#         867
  C:36BAH         LINE#         868
  C:36BAH         LINE#         869
  C:36BEH         LINE#         870
  C:36BEH         LINE#         871
  -------         ENDPROC       _CANCEL_FUNTION
  -------         PROC          _SEARCH_FUNTION
  X:04F8H         SYMBOL        id_number
BL51 BANKED LINKER/LOCATER V6.22                                                      04/11/2016  14:38:45  PAGE 77


  X:04FBH         SYMBOL        buff
  -------         DO            
  D:0004H         SYMBOL        i
  X:04FEH         SYMBOL        index
  D:0005H         SYMBOL        Two_Menu_F3_E2_temp
  X:04FFH         SYMBOL        temp
  -------         ENDDO         
  C:42BEH         LINE#         879
  C:42C9H         LINE#         880
  C:42C9H         LINE#         887
  C:42DCH         LINE#         888
  C:42E4H         LINE#         889
  C:42E9H         LINE#         891
  C:42F3H         LINE#         892
  C:42F3H         LINE#         893
  C:43BAH         LINE#         894
  C:43BAH         LINE#         895
  C:43C0H         LINE#         896
  C:43C5H         LINE#         897
  C:43C7H         LINE#         898
  C:43C7H         LINE#         899
  C:43CBH         LINE#         901
  C:43D5H         LINE#         902
  C:43D5H         LINE#         903
  C:43EEH         LINE#         904
  C:43F1H         LINE#         905
  C:43F8H         LINE#         906
  C:43F8H         LINE#         907
  C:43FAH         LINE#         908
  C:43FAH         LINE#         909
  C:4428H         LINE#         910
  C:442DH         LINE#         911
  C:442DH         LINE#         912
  -------         ENDPROC       _SEARCH_FUNTION
  -------         PROC          FUN0
  -------         DO            
  D:0007H         SYMBOL        temp
  -------         ENDDO         
  C:6FB3H         LINE#         916
  C:6FB3H         LINE#         917
  C:6FB3H         LINE#         919
  C:6FB5H         LINE#         920
  C:6FB8H         LINE#         921
  C:6FBDH         LINE#         922
  C:6FC1H         LINE#         923
  C:6FC1H         LINE#         924
  C:6FC3H         LINE#         925
  C:6FC6H         LINE#         926
  C:6FC8H         LINE#         928
  C:6FC8H         LINE#         929
  C:6FCBH         LINE#         930
  C:6FCBH         LINE#         936
  C:6FD1H         LINE#         937
  C:6FD1H         LINE#         938
  C:6FD4H         LINE#         939
  C:6FD4H         LINE#         940
  C:6FD6H         LINE#         942
BL51 BANKED LINKER/LOCATER V6.22                                                      04/11/2016  14:38:45  PAGE 78


  -------         ENDPROC       FUN0
  -------         PROC          FUN1
  C:0006H         LINE#         944
  C:0006H         LINE#         945
  C:0006H         LINE#         946
  -------         ENDPROC       FUN1
  -------         PROC          FUN2
  C:71F8H         LINE#         949
  C:71F8H         LINE#         950
  C:71F8H         LINE#         951
  C:71FDH         LINE#         952
  C:7209H         LINE#         953
  C:7209H         LINE#         954
  C:7210H         LINE#         955
  C:7215H         LINE#         956
  C:7215H         LINE#         957
  -------         ENDPROC       FUN2
  -------         PROC          FUN3
  C:7216H         LINE#         959
  C:7216H         LINE#         960
  C:7216H         LINE#         961
  C:721BH         LINE#         962
  C:7227H         LINE#         963
  C:7227H         LINE#         964
  C:722EH         LINE#         965
  C:7233H         LINE#         966
  C:7233H         LINE#         967
  -------         ENDPROC       FUN3
  -------         PROC          FUN4
  C:7234H         LINE#         969
  C:7234H         LINE#         970
  C:7234H         LINE#         971
  C:7239H         LINE#         972
  C:7245H         LINE#         973
  C:7245H         LINE#         974
  C:724CH         LINE#         975
  C:7251H         LINE#         976
  C:7251H         LINE#         977
  -------         ENDPROC       FUN4
  -------         PROC          FUN5
  C:7252H         LINE#         979
  C:7252H         LINE#         980
  C:7252H         LINE#         981
  C:7257H         LINE#         982
  C:7263H         LINE#         983
  C:7263H         LINE#         984
  C:726AH         LINE#         985
  C:726FH         LINE#         986
  C:726FH         LINE#         987
  -------         ENDPROC       FUN5
  -------         PROC          FUN6
  C:7270H         LINE#         989
  C:7270H         LINE#         990
  C:7270H         LINE#         991
  C:7275H         LINE#         992
  C:7281H         LINE#         993
  C:7281H         LINE#         994
BL51 BANKED LINKER/LOCATER V6.22                                                      04/11/2016  14:38:45  PAGE 79


  C:7288H         LINE#         995
  C:728DH         LINE#         996
  C:728DH         LINE#         997
  -------         ENDPROC       FUN6
  -------         PROC          FUN7
  C:728EH         LINE#         999
  C:728EH         LINE#         1000
  C:728EH         LINE#         1001
  C:7293H         LINE#         1002
  C:729FH         LINE#         1003
  C:729FH         LINE#         1004
  C:72A6H         LINE#         1005
  C:72ABH         LINE#         1006
  C:72ABH         LINE#         1007
  -------         ENDPROC       FUN7
  -------         PROC          FUN8
  C:72ACH         LINE#         1009
  C:72ACH         LINE#         1010
  C:72ACH         LINE#         1011
  C:72B1H         LINE#         1012
  C:72BDH         LINE#         1013
  C:72BDH         LINE#         1014
  C:72C4H         LINE#         1015
  C:72C9H         LINE#         1016
  C:72C9H         LINE#         1017
  -------         ENDPROC       FUN8
  -------         PROC          FUN9
  C:72CAH         LINE#         1019
  C:72CAH         LINE#         1020
  C:72CAH         LINE#         1021
  C:72CFH         LINE#         1022
  C:72DBH         LINE#         1023
  C:72DBH         LINE#         1024
  C:72E2H         LINE#         1025
  C:72E7H         LINE#         1026
  C:72E7H         LINE#         1027
  -------         ENDPROC       FUN9
  -------         PROC          FUN10
  C:72E8H         LINE#         1029
  C:72E8H         LINE#         1030
  C:72E8H         LINE#         1031
  C:72EDH         LINE#         1032
  C:72F9H         LINE#         1033
  C:72F9H         LINE#         1034
  C:7300H         LINE#         1035
  C:7305H         LINE#         1036
  C:7305H         LINE#         1037
  -------         ENDPROC       FUN10
  -------         PROC          FUN11
  C:001EH         LINE#         1039
  C:001EH         LINE#         1040
  C:001EH         LINE#         1041
  -------         ENDPROC       FUN11
  -------         PROC          FUN12
  C:77BDH         LINE#         1044
  C:77BDH         LINE#         1045
  C:77BDH         LINE#         1046
BL51 BANKED LINKER/LOCATER V6.22                                                      04/11/2016  14:38:45  PAGE 80


  -------         ENDPROC       FUN12
  -------         PROC          FUN13
  C:77C2H         LINE#         1049
  C:77C2H         LINE#         1050
  C:77C2H         LINE#         1051
  -------         ENDPROC       FUN13
  -------         PROC          FUN14
  C:000EH         LINE#         1054
  C:000EH         LINE#         1055
  C:000EH         LINE#         1056
  C:0013H         LINE#         1057
  C:0018H         LINE#         1058
  C:001AH         LINE#         1059
  -------         ENDPROC       FUN14
  -------         PROC          FUN15
  C:668AH         LINE#         1061
  C:668AH         LINE#         1062
  C:668AH         LINE#         1063
  C:6690H         LINE#         1064
  C:6690H         LINE#         1065
  C:6693H         LINE#         1066
  C:6698H         LINE#         1067
  C:6698H         LINE#         1068
  C:66A0H         LINE#         1069
  C:66A0H         LINE#         1070
  C:66A6H         LINE#         1071
  C:66A6H         LINE#         1072
  C:66AAH         LINE#         1073
  C:66AEH         LINE#         1074
  C:66B2H         LINE#         1075
  C:66B6H         LINE#         1076
  C:66B8H         LINE#         1078
  C:66B8H         LINE#         1079
  C:66BDH         LINE#         1080
  C:66C1H         LINE#         1081
  C:66C5H         LINE#         1082
  C:66C9H         LINE#         1083
  C:66C9H         LINE#         1084
  C:66CCH         LINE#         1085
  C:66D1H         LINE#         1086
  C:66D1H         LINE#         1087
  -------         ENDPROC       FUN15
  -------         PROC          FUN16
  C:6919H         LINE#         1090
  C:6919H         LINE#         1091
  C:6919H         LINE#         1092
  C:691FH         LINE#         1093
  C:691FH         LINE#         1094
  C:6922H         LINE#         1095
  C:6927H         LINE#         1096
  C:6927H         LINE#         1097
  C:692DH         LINE#         1098
  C:692DH         LINE#         1099
  C:6933H         LINE#         1100
  C:6933H         LINE#         1101
  C:6937H         LINE#         1102
  C:693BH         LINE#         1103
BL51 BANKED LINKER/LOCATER V6.22                                                      04/11/2016  14:38:45  PAGE 81


  C:693DH         LINE#         1105
  C:693DH         LINE#         1106
  C:6942H         LINE#         1107
  C:6946H         LINE#         1108
  C:6946H         LINE#         1109
  C:6949H         LINE#         1110
  C:694EH         LINE#         1111
  C:694EH         LINE#         1112
  -------         ENDPROC       FUN16
  -------         PROC          FUN17
  C:6951H         LINE#         1115
  C:6951H         LINE#         1116
  C:6951H         LINE#         1117
  C:6957H         LINE#         1118
  C:6957H         LINE#         1119
  C:695AH         LINE#         1120
  C:695FH         LINE#         1121
  C:695FH         LINE#         1122
  C:6965H         LINE#         1123
  C:6965H         LINE#         1124
  C:696BH         LINE#         1125
  C:696BH         LINE#         1126
  C:696FH         LINE#         1127
  C:6973H         LINE#         1128
  C:6975H         LINE#         1130
  C:6975H         LINE#         1131
  C:697AH         LINE#         1132
  C:697EH         LINE#         1133
  C:697EH         LINE#         1134
  C:6981H         LINE#         1135
  C:6986H         LINE#         1136
  C:6986H         LINE#         1137
  -------         ENDPROC       FUN17
  -------         PROC          FUN18
  C:6FD7H         LINE#         1140
  C:6FD7H         LINE#         1141
  C:6FD7H         LINE#         1142
  C:6FDDH         LINE#         1143
  C:6FDDH         LINE#         1144
  C:6FE0H         LINE#         1145
  C:6FE5H         LINE#         1146
  C:6FE5H         LINE#         1147
  C:6FEBH         LINE#         1148
  C:6FEBH         LINE#         1149
  C:6FF0H         LINE#         1150
  C:6FF3H         LINE#         1151
  C:6FF8H         LINE#         1152
  C:6FF8H         LINE#         1153
  -------         ENDPROC       FUN18
  -------         PROC          FUN19
  C:6BF7H         LINE#         1156
  C:6BF7H         LINE#         1157
  C:6BF7H         LINE#         1158
  C:6BFDH         LINE#         1159
  C:6BFDH         LINE#         1160
  C:6C00H         LINE#         1161
  C:6C05H         LINE#         1162
BL51 BANKED LINKER/LOCATER V6.22                                                      04/11/2016  14:38:45  PAGE 82


  C:6C05H         LINE#         1163
  C:6C0BH         LINE#         1164
  C:6C0BH         LINE#         1165
  C:6C10H         LINE#         1166
  C:6C14H         LINE#         1167
  C:6C17H         LINE#         1168
  C:6C1CH         LINE#         1169
  C:6C1CH         LINE#         1170
  -------         ENDPROC       FUN19
  -------         PROC          FUN20
  -------         DO            
  D:0007H         SYMBOL        temp
  -------         ENDDO         
  C:6AC0H         LINE#         1173
  C:6AC0H         LINE#         1174
  C:6AC0H         LINE#         1176
  C:6AC3H         LINE#         1177
  C:6AC7H         LINE#         1178
  C:6AC7H         LINE#         1179
  C:6ACCH         LINE#         1180
  C:6ACCH         LINE#         1182
  C:6ACCH         LINE#         1183
  C:6AD2H         LINE#         1184
  C:6AD2H         LINE#         1185
  C:6AD5H         LINE#         1186
  C:6ADAH         LINE#         1187
  C:6ADAH         LINE#         1188
  C:6AE0H         LINE#         1189
  C:6AE0H         LINE#         1190
  C:6AE5H         LINE#         1191
  C:6AE5H         LINE#         1192
  C:6AE8H         LINE#         1193
  C:6AEDH         LINE#         1194
  C:6AEDH         LINE#         1195
  C:6AF0H         LINE#         1196
  C:6AF0H         LINE#         1197
  -------         ENDPROC       FUN20
  -------         PROC          FUN21
  C:7489H         LINE#         1199
  C:7489H         LINE#         1200
  C:7489H         LINE#         1201
  C:748EH         LINE#         1203
  C:7493H         LINE#         1204
  C:7495H         LINE#         1205
  C:7497H         LINE#         1206
  C:749AH         LINE#         1214
  -------         ENDPROC       FUN21
  -------         PROC          FUN22
  C:749BH         LINE#         1216
  C:749BH         LINE#         1217
  C:749BH         LINE#         1218
  C:74A0H         LINE#         1219
  C:74A5H         LINE#         1220
  C:74A7H         LINE#         1221
  C:74A9H         LINE#         1222
  C:74ACH         LINE#         1223
  -------         ENDPROC       FUN22
BL51 BANKED LINKER/LOCATER V6.22                                                      04/11/2016  14:38:45  PAGE 83


  -------         PROC          FUN23
  C:74ADH         LINE#         1225
  C:74ADH         LINE#         1226
  C:74ADH         LINE#         1227
  C:74B2H         LINE#         1228
  C:74B7H         LINE#         1229
  C:74B9H         LINE#         1230
  C:74BBH         LINE#         1231
  C:74BEH         LINE#         1232
  -------         ENDPROC       FUN23
  -------         PROC          FUN24
  C:74BFH         LINE#         1234
  C:74BFH         LINE#         1235
  C:74BFH         LINE#         1236
  C:74C4H         LINE#         1237
  C:74C9H         LINE#         1238
  C:74CBH         LINE#         1239
  C:74CDH         LINE#         1240
  C:74D0H         LINE#         1241
  -------         ENDPROC       FUN24
  -------         PROC          FUN25
  C:74D1H         LINE#         1243
  C:74D1H         LINE#         1244
  C:74D1H         LINE#         1245
  C:74D6H         LINE#         1246
  C:74DBH         LINE#         1247
  C:74DDH         LINE#         1248
  C:74DFH         LINE#         1249
  C:74E2H         LINE#         1250
  -------         ENDPROC       FUN25
  -------         PROC          FUN26
  C:74E3H         LINE#         1252
  C:74E3H         LINE#         1253
  C:74E3H         LINE#         1254
  C:74E8H         LINE#         1255
  C:74EDH         LINE#         1256
  C:74EFH         LINE#         1257
  C:74F1H         LINE#         1258
  C:74F4H         LINE#         1259
  -------         ENDPROC       FUN26
  -------         PROC          FUN27
  C:74F5H         LINE#         1261
  C:74F5H         LINE#         1262
  C:74F5H         LINE#         1263
  C:74FAH         LINE#         1264
  C:74FFH         LINE#         1265
  C:7501H         LINE#         1266
  C:7503H         LINE#         1267
  C:7506H         LINE#         1268
  -------         ENDPROC       FUN27
  -------         PROC          FUN28
  C:7507H         LINE#         1270
  C:7507H         LINE#         1271
  C:7507H         LINE#         1272
  C:750CH         LINE#         1273
  C:7511H         LINE#         1274
  C:7513H         LINE#         1275
BL51 BANKED LINKER/LOCATER V6.22                                                      04/11/2016  14:38:45  PAGE 84


  C:7515H         LINE#         1276
  C:7518H         LINE#         1277
  -------         ENDPROC       FUN28
  -------         PROC          FUN29
  C:77C7H         LINE#         1279
  C:77C7H         LINE#         1280
  C:77C7H         LINE#         1281
  -------         ENDPROC       FUN29
  -------         PROC          FUN30
  C:77CCH         LINE#         1284
  C:77CCH         LINE#         1285
  C:77CCH         LINE#         1286
  -------         ENDPROC       FUN30
  -------         PROC          FUN31
  -------         DO            
  D:0007H         SYMBOL        temp
  -------         ENDDO         
  C:7608H         LINE#         1289
  C:7608H         LINE#         1290
  C:7608H         LINE#         1291
  C:760AH         LINE#         1292
  C:760DH         LINE#         1293
  -------         ENDPROC       FUN31
  -------         PROC          FUN32
  -------         DO            
  D:0007H         SYMBOL        temp
  -------         ENDDO         
  C:7610H         LINE#         1296
  C:7610H         LINE#         1297
  C:7610H         LINE#         1298
  C:7612H         LINE#         1299
  C:7615H         LINE#         1300
  -------         ENDPROC       FUN32
  -------         PROC          FUN33
  C:77D1H         LINE#         1303
  C:77D1H         LINE#         1304
  C:77D1H         LINE#         1305
  -------         ENDPROC       FUN33
  -------         PROC          FUN34
  C:77D6H         LINE#         1308
  C:77D6H         LINE#         1309
  C:77D6H         LINE#         1310
  -------         ENDPROC       FUN34
  -------         PROC          FUN35
  C:77DBH         LINE#         1313
  C:77DBH         LINE#         1314
  C:77DBH         LINE#         1315
  -------         ENDPROC       FUN35
  -------         PROC          FUN36
  C:77E0H         LINE#         1318
  C:77E0H         LINE#         1319
  C:77E0H         LINE#         1320
  -------         ENDPROC       FUN36
  -------         PROC          FUN37
  C:77E5H         LINE#         1323
  C:77E5H         LINE#         1324
  C:77E5H         LINE#         1325
BL51 BANKED LINKER/LOCATER V6.22                                                      04/11/2016  14:38:45  PAGE 85


  -------         ENDPROC       FUN37
  -------         PROC          FUN38
  C:77EAH         LINE#         1328
  C:77EAH         LINE#         1329
  C:77EAH         LINE#         1330
  -------         ENDPROC       FUN38
  -------         PROC          FUN39
  C:77EFH         LINE#         1333
  C:77EFH         LINE#         1334
  C:77EFH         LINE#         1335
  -------         ENDPROC       FUN39
  -------         PROC          FUN40
  C:77F4H         LINE#         1338
  C:77F4H         LINE#         1339
  C:77F4H         LINE#         1340
  -------         ENDPROC       FUN40
  -------         PROC          FUN41
  C:77F9H         LINE#         1343
  C:77F9H         LINE#         1344
  C:77F9H         LINE#         1345
  -------         ENDPROC       FUN41
  -------         PROC          FUN42
  C:759CH         LINE#         1348
  C:759CH         LINE#         1349
  C:759CH         LINE#         1350
  C:75A1H         LINE#         1351
  C:75A9H         LINE#         1352
  -------         ENDPROC       FUN42
  -------         PROC          FUN43
  C:77FEH         LINE#         1354
  C:77FEH         LINE#         1355
  C:77FEH         LINE#         1356
  -------         ENDPROC       FUN43
  -------         PROC          FUN44
  C:7803H         LINE#         1359
  C:7803H         LINE#         1360
  C:7803H         LINE#         1361
  -------         ENDPROC       FUN44
  -------         PROC          FUN45
  C:7808H         LINE#         1364
  C:7808H         LINE#         1365
  C:7808H         LINE#         1366
  -------         ENDPROC       FUN45
  -------         PROC          FUN46
  -------         DO            
  D:0006H         SYMBOL        measure_sync_saved_temp
  D:0004H         SYMBOL        show_temp
  -------         ENDDO         
  C:733FH         LINE#         1369
  C:733FH         LINE#         1370
  C:733FH         LINE#         1371
  C:7342H         LINE#         1372
  C:7344H         LINE#         1374
  C:7347H         LINE#         1375
  C:7356H         LINE#         1376
  -------         ENDPROC       FUN46
  -------         PROC          FUN47
BL51 BANKED LINKER/LOCATER V6.22                                                      04/11/2016  14:38:45  PAGE 86


  -------         DO            
  D:0007H         SYMBOL        temp
  -------         ENDDO         
  C:7618H         LINE#         1384
  C:7618H         LINE#         1385
  C:7618H         LINE#         1386
  C:761AH         LINE#         1387
  C:761DH         LINE#         1388
  -------         ENDPROC       FUN47
  -------         PROC          FUN48
  -------         DO            
  D:0007H         SYMBOL        temp
  -------         ENDDO         
  C:7620H         LINE#         1391
  C:7620H         LINE#         1392
  C:7620H         LINE#         1393
  C:7622H         LINE#         1394
  C:7625H         LINE#         1395
  -------         ENDPROC       FUN48
  -------         PROC          FUN49
  -------         DO            
  X:04D0H         SYMBOL        temp
  -------         ENDDO         
  C:6550H         LINE#         1398
  C:6550H         LINE#         1399
  C:6550H         LINE#         1401
  C:6558H         LINE#         1402
  C:655DH         LINE#         1403
  C:655DH         LINE#         1404
  C:6564H         LINE#         1405
  C:6564H         LINE#         1406
  C:6564H         LINE#         1407
  C:6566H         LINE#         1408
  C:656CH         LINE#         1409
  C:656CH         LINE#         1410
  C:657DH         LINE#         1411
  C:657FH         LINE#         1413
  C:657FH         LINE#         1414
  C:6584H         LINE#         1415
  C:6584H         LINE#         1416
  C:6587H         LINE#         1417
  C:6587H         LINE#         1418
  C:658EH         LINE#         1419
  C:658EH         LINE#         1420
  C:658EH         LINE#         1421
  C:6597H         LINE#         1422
  C:6597H         LINE#         1423
  C:659AH         LINE#         1424
  C:659DH         LINE#         1425
  C:659DH         LINE#         1426
  C:659FH         LINE#         1427
  -------         ENDPROC       FUN49
  -------         PROC          FUN50
  C:7113H         LINE#         1429
  C:7113H         LINE#         1430
  C:7113H         LINE#         1431
  C:7119H         LINE#         1432
BL51 BANKED LINKER/LOCATER V6.22                                                      04/11/2016  14:38:45  PAGE 87


  C:7119H         LINE#         1433
  C:711CH         LINE#         1434
  C:7121H         LINE#         1435
  C:7121H         LINE#         1436
  C:7127H         LINE#         1437
  C:7127H         LINE#         1439
  C:712CH         LINE#         1444
  C:712FH         LINE#         1445
  C:7134H         LINE#         1446
  C:7134H         LINE#         1447
  -------         ENDPROC       FUN50
  -------         PROC          FUN51
  C:7135H         LINE#         1449
  C:7135H         LINE#         1450
  C:7135H         LINE#         1451
  C:713BH         LINE#         1452
  C:713BH         LINE#         1453
  C:713EH         LINE#         1454
  C:7143H         LINE#         1455
  C:7143H         LINE#         1456
  C:7149H         LINE#         1457
  C:7149H         LINE#         1459
  C:714EH         LINE#         1464
  C:7151H         LINE#         1465
  C:7156H         LINE#         1466
  C:7156H         LINE#         1467
  -------         ENDPROC       FUN51
  -------         PROC          FUN52
  C:7157H         LINE#         1469
  C:7157H         LINE#         1470
  C:7157H         LINE#         1471
  C:715DH         LINE#         1472
  C:715DH         LINE#         1473
  C:7160H         LINE#         1474
  C:7165H         LINE#         1475
  C:7165H         LINE#         1476
  C:716BH         LINE#         1477
  C:716BH         LINE#         1479
  C:7170H         LINE#         1484
  C:7173H         LINE#         1485
  C:7178H         LINE#         1486
  C:7178H         LINE#         1487
  -------         ENDPROC       FUN52
  -------         PROC          FUN53
  C:0026H         LINE#         1489
  C:0026H         LINE#         1490
  C:0026H         LINE#         1491
  C:002CH         LINE#         1492
  C:002CH         LINE#         1493
  C:002FH         LINE#         1494
  C:0034H         LINE#         1495
  C:0034H         LINE#         1496
  C:003AH         LINE#         1497
  C:003AH         LINE#         1499
  C:003AH         LINE#         1504
  C:003DH         LINE#         1505
  C:0042H         LINE#         1506
BL51 BANKED LINKER/LOCATER V6.22                                                      04/11/2016  14:38:45  PAGE 88


  C:0042H         LINE#         1507
  -------         ENDPROC       FUN53
  -------         PROC          FUN54
  C:6C1FH         LINE#         1509
  C:6C1FH         LINE#         1510
  C:6C1FH         LINE#         1511
  C:6C25H         LINE#         1512
  C:6C25H         LINE#         1513
  C:6C2EH         LINE#         1514
  C:6C33H         LINE#         1515
  C:6C33H         LINE#         1516
  C:6C39H         LINE#         1517
  C:6C39H         LINE#         1519
  C:6C3EH         LINE#         1524
  C:6C41H         LINE#         1525
  C:6C46H         LINE#         1526
  C:6C46H         LINE#         1527
  -------         ENDPROC       FUN54
  -------         PROC          FUN55
  C:6C47H         LINE#         1529
  C:6C47H         LINE#         1530
  C:6C47H         LINE#         1531
  C:6C4DH         LINE#         1532
  C:6C4DH         LINE#         1533
  C:6C56H         LINE#         1534
  C:6C5BH         LINE#         1535
  C:6C5BH         LINE#         1536
  C:6C61H         LINE#         1537
  C:6C61H         LINE#         1539
  C:6C66H         LINE#         1544
  C:6C69H         LINE#         1545
  C:6C6EH         LINE#         1546
  C:6C6EH         LINE#         1547
  -------         ENDPROC       FUN55
  -------         PROC          FUN56
  C:6C6FH         LINE#         1549
  C:6C6FH         LINE#         1550
  C:6C6FH         LINE#         1551
  C:6C75H         LINE#         1552
  C:6C75H         LINE#         1553
  C:6C7EH         LINE#         1554
  C:6C83H         LINE#         1555
  C:6C83H         LINE#         1556
  C:6C89H         LINE#         1557
  C:6C89H         LINE#         1559
  C:6C8EH         LINE#         1564
  C:6C91H         LINE#         1565
  C:6C96H         LINE#         1566
  C:6C96H         LINE#         1567
  -------         ENDPROC       FUN56
  -------         PROC          FUN57
  C:701EH         LINE#         1569
  C:701EH         LINE#         1570
  C:701EH         LINE#         1571
  C:7024H         LINE#         1572
  C:7024H         LINE#         1573
  C:702DH         LINE#         1574
BL51 BANKED LINKER/LOCATER V6.22                                                      04/11/2016  14:38:45  PAGE 89


  C:7032H         LINE#         1575
  C:7032H         LINE#         1576
  C:7038H         LINE#         1577
  C:7038H         LINE#         1579
  C:7038H         LINE#         1585
  C:703BH         LINE#         1586
  C:7040H         LINE#         1587
  C:7040H         LINE#         1588
  -------         ENDPROC       FUN57
  -------         PROC          FUN58
  C:6C97H         LINE#         1590
  C:6C97H         LINE#         1591
  C:6C97H         LINE#         1592
  C:6C9DH         LINE#         1593
  C:6C9DH         LINE#         1594
  C:6CA6H         LINE#         1595
  C:6CABH         LINE#         1596
  C:6CABH         LINE#         1597
  C:6CB1H         LINE#         1598
  C:6CB1H         LINE#         1600
  C:6CB6H         LINE#         1605
  C:6CB9H         LINE#         1606
  C:6CBEH         LINE#         1607
  C:6CBEH         LINE#         1608
  -------         ENDPROC       FUN58
  -------         PROC          FUN59
  C:6CBFH         LINE#         1610
  C:6CBFH         LINE#         1611
  C:6CBFH         LINE#         1612
  C:6CC5H         LINE#         1613
  C:6CC5H         LINE#         1614
  C:6CCEH         LINE#         1615
  C:6CD3H         LINE#         1616
  C:6CD3H         LINE#         1617
  C:6CD9H         LINE#         1618
  C:6CD9H         LINE#         1620
  C:6CDEH         LINE#         1625
  C:6CE1H         LINE#         1626
  C:6CE6H         LINE#         1627
  C:6CE6H         LINE#         1628
  -------         ENDPROC       FUN59
  -------         PROC          FUN60
  C:6CE7H         LINE#         1630
  C:6CE7H         LINE#         1631
  C:6CE7H         LINE#         1632
  C:6CEDH         LINE#         1633
  C:6CEDH         LINE#         1634
  C:6CF6H         LINE#         1635
  C:6CFBH         LINE#         1636
  C:6CFBH         LINE#         1637
  C:6D01H         LINE#         1638
  C:6D01H         LINE#         1640
  C:6D06H         LINE#         1645
  C:6D09H         LINE#         1646
  C:6D0EH         LINE#         1647
  C:6D0EH         LINE#         1648
  -------         ENDPROC       FUN60
BL51 BANKED LINKER/LOCATER V6.22                                                      04/11/2016  14:38:45  PAGE 90


  -------         PROC          FUN61
  C:7041H         LINE#         1650
  C:7041H         LINE#         1651
  C:7041H         LINE#         1652
  C:7047H         LINE#         1653
  C:7047H         LINE#         1654
  C:7050H         LINE#         1655
  C:7055H         LINE#         1656
  C:7055H         LINE#         1657
  C:705BH         LINE#         1658
  C:705BH         LINE#         1660
  C:705BH         LINE#         1665
  C:705EH         LINE#         1666
  C:7063H         LINE#         1667
  C:7063H         LINE#         1668
  -------         ENDPROC       FUN61
  -------         PROC          FUN62
  C:6D0FH         LINE#         1670
  C:6D0FH         LINE#         1671
  C:6D0FH         LINE#         1672
  C:6D15H         LINE#         1673
  C:6D15H         LINE#         1674
  C:6D1EH         LINE#         1675
  C:6D23H         LINE#         1676
  C:6D23H         LINE#         1677
  C:6D29H         LINE#         1678
  C:6D29H         LINE#         1680
  C:6D2EH         LINE#         1686
  C:6D31H         LINE#         1687
  C:6D36H         LINE#         1688
  C:6D36H         LINE#         1689
  -------         ENDPROC       FUN62
  -------         PROC          FUN63
  C:6D37H         LINE#         1691
  C:6D37H         LINE#         1692
  C:6D37H         LINE#         1693
  C:6D3DH         LINE#         1694
  C:6D3DH         LINE#         1695
  C:6D46H         LINE#         1696
  C:6D4BH         LINE#         1697
  C:6D4BH         LINE#         1698
  C:6D51H         LINE#         1699
  C:6D51H         LINE#         1701
  C:6D56H         LINE#         1706
  C:6D59H         LINE#         1707
  C:6D5EH         LINE#         1708
  C:6D5EH         LINE#         1709
  -------         ENDPROC       FUN63
  -------         PROC          FUN64
  C:6D5FH         LINE#         1711
  C:6D5FH         LINE#         1712
  C:6D5FH         LINE#         1713
  C:6D65H         LINE#         1714
  C:6D65H         LINE#         1715
  C:6D6EH         LINE#         1716
  C:6D73H         LINE#         1717
  C:6D73H         LINE#         1718
BL51 BANKED LINKER/LOCATER V6.22                                                      04/11/2016  14:38:45  PAGE 91


  C:6D79H         LINE#         1719
  C:6D79H         LINE#         1721
  C:6D7EH         LINE#         1726
  C:6D81H         LINE#         1727
  C:6D86H         LINE#         1728
  C:6D86H         LINE#         1729
  -------         ENDPROC       FUN64
  -------         PROC          FUN65
  C:7064H         LINE#         1731
  C:7064H         LINE#         1732
  C:7064H         LINE#         1733
  C:706AH         LINE#         1734
  C:706AH         LINE#         1735
  C:7073H         LINE#         1736
  C:7078H         LINE#         1737
  C:7078H         LINE#         1738
  C:707EH         LINE#         1739
  C:707EH         LINE#         1741
  C:707EH         LINE#         1746
  C:7081H         LINE#         1747
  C:7086H         LINE#         1748
  C:7086H         LINE#         1749
  -------         ENDPROC       FUN65
  -------         PROC          FUN66
  C:6D87H         LINE#         1751
  C:6D87H         LINE#         1752
  C:6D87H         LINE#         1753
  C:6D8DH         LINE#         1754
  C:6D8DH         LINE#         1755
  C:6D96H         LINE#         1756
  C:6D9BH         LINE#         1757
  C:6D9BH         LINE#         1758
  C:6DA1H         LINE#         1759
  C:6DA1H         LINE#         1761
  C:6DA6H         LINE#         1766
  C:6DA9H         LINE#         1767
  C:6DAEH         LINE#         1768
  C:6DAEH         LINE#         1769
  -------         ENDPROC       FUN66
  -------         PROC          FUN67
  C:6DAFH         LINE#         1771
  C:6DAFH         LINE#         1772
  C:6DAFH         LINE#         1773
  C:6DB5H         LINE#         1774
  C:6DB5H         LINE#         1775
  C:6DBEH         LINE#         1776
  C:6DC3H         LINE#         1777
  C:6DC3H         LINE#         1778
  C:6DC9H         LINE#         1779
  C:6DC9H         LINE#         1781
  C:6DCEH         LINE#         1786
  C:6DD1H         LINE#         1787
  C:6DD6H         LINE#         1788
  C:6DD6H         LINE#         1789
  -------         ENDPROC       FUN67
  -------         PROC          FUN68
  C:6DD7H         LINE#         1791
BL51 BANKED LINKER/LOCATER V6.22                                                      04/11/2016  14:38:45  PAGE 92


  C:6DD7H         LINE#         1792
  C:6DD7H         LINE#         1793
  C:6DDDH         LINE#         1794
  C:6DDDH         LINE#         1795
  C:6DE6H         LINE#         1796
  C:6DEBH         LINE#         1797
  C:6DEBH         LINE#         1798
  C:6DF1H         LINE#         1799
  C:6DF1H         LINE#         1801
  C:6DF6H         LINE#         1806
  C:6DF9H         LINE#         1807
  C:6DFEH         LINE#         1808
  C:6DFEH         LINE#         1809
  -------         ENDPROC       FUN68
  -------         PROC          FUN69
  C:7087H         LINE#         1811
  C:7087H         LINE#         1812
  C:7087H         LINE#         1813
  C:708DH         LINE#         1814
  C:708DH         LINE#         1815
  C:7096H         LINE#         1816
  C:709BH         LINE#         1817
  C:709BH         LINE#         1818
  C:70A1H         LINE#         1819
  C:70A1H         LINE#         1821
  C:70A1H         LINE#         1826
  C:70A4H         LINE#         1827
  C:70A9H         LINE#         1828
  C:70A9H         LINE#         1829
  -------         ENDPROC       FUN69
  -------         PROC          FUN70
  C:6DFFH         LINE#         1831
  C:6DFFH         LINE#         1832
  C:6DFFH         LINE#         1833
  C:6E05H         LINE#         1834
  C:6E05H         LINE#         1835
  C:6E0EH         LINE#         1836
  C:6E13H         LINE#         1837
  C:6E13H         LINE#         1838
  C:6E19H         LINE#         1839
  C:6E19H         LINE#         1841
  C:6E1EH         LINE#         1846
  C:6E21H         LINE#         1847
  C:6E26H         LINE#         1848
  C:6E26H         LINE#         1849
  -------         ENDPROC       FUN70
  -------         PROC          FUN71
  C:6E27H         LINE#         1851
  C:6E27H         LINE#         1852
  C:6E27H         LINE#         1853
  C:6E2DH         LINE#         1854
  C:6E2DH         LINE#         1855
  C:6E36H         LINE#         1856
  C:6E3BH         LINE#         1857
  C:6E3BH         LINE#         1858
  C:6E41H         LINE#         1859
  C:6E41H         LINE#         1861
BL51 BANKED LINKER/LOCATER V6.22                                                      04/11/2016  14:38:45  PAGE 93


  C:6E46H         LINE#         1866
  C:6E49H         LINE#         1867
  C:6E4EH         LINE#         1868
  C:6E4EH         LINE#         1869
  -------         ENDPROC       FUN71
  -------         PROC          FUN72
  C:6E4FH         LINE#         1871
  C:6E4FH         LINE#         1872
  C:6E4FH         LINE#         1873
  C:6E55H         LINE#         1874
  C:6E55H         LINE#         1875
  C:6E5EH         LINE#         1876
  C:6E63H         LINE#         1877
  C:6E63H         LINE#         1878
  C:6E69H         LINE#         1879
  C:6E69H         LINE#         1881
  C:6E6EH         LINE#         1886
  C:6E71H         LINE#         1887
  C:6E76H         LINE#         1888
  C:6E76H         LINE#         1889
  -------         ENDPROC       FUN72
  -------         PROC          FUN73
  C:70AAH         LINE#         1891
  C:70AAH         LINE#         1892
  C:70AAH         LINE#         1893
  C:70B0H         LINE#         1894
  C:70B0H         LINE#         1895
  C:70B9H         LINE#         1896
  C:70BEH         LINE#         1897
  C:70BEH         LINE#         1898
  C:70C4H         LINE#         1899
  C:70C4H         LINE#         1901
  C:70C4H         LINE#         1906
  C:70C7H         LINE#         1907
  C:70CCH         LINE#         1908
  C:70CCH         LINE#         1909
  -------         ENDPROC       FUN73
  -------         PROC          FUN74
  C:6E77H         LINE#         1911
  C:6E77H         LINE#         1912
  C:6E77H         LINE#         1913
  C:6E7DH         LINE#         1914
  C:6E7DH         LINE#         1915
  C:6E86H         LINE#         1916
  C:6E8BH         LINE#         1917
  C:6E8BH         LINE#         1918
  C:6E91H         LINE#         1919
  C:6E91H         LINE#         1921
  C:6E96H         LINE#         1926
  C:6E99H         LINE#         1927
  C:6E9EH         LINE#         1928
  C:6E9EH         LINE#         1929
  -------         ENDPROC       FUN74
  -------         PROC          FUN75
  C:6E9FH         LINE#         1931
  C:6E9FH         LINE#         1932
  C:6E9FH         LINE#         1933
BL51 BANKED LINKER/LOCATER V6.22                                                      04/11/2016  14:38:45  PAGE 94


  C:6EA5H         LINE#         1934
  C:6EA5H         LINE#         1935
  C:6EAEH         LINE#         1936
  C:6EB3H         LINE#         1937
  C:6EB3H         LINE#         1938
  C:6EB9H         LINE#         1939
  C:6EB9H         LINE#         1941
  C:6EBEH         LINE#         1946
  C:6EC1H         LINE#         1947
  C:6EC6H         LINE#         1948
  C:6EC6H         LINE#         1949
  -------         ENDPROC       FUN75
  -------         PROC          FUN76
  C:6EC7H         LINE#         1951
  C:6EC7H         LINE#         1952
  C:6EC7H         LINE#         1953
  C:6ECDH         LINE#         1954
  C:6ECDH         LINE#         1955
  C:6ED6H         LINE#         1956
  C:6EDBH         LINE#         1957
  C:6EDBH         LINE#         1958
  C:6EE1H         LINE#         1959
  C:6EE1H         LINE#         1961
  C:6EE6H         LINE#         1966
  C:6EE9H         LINE#         1967
  C:6EEEH         LINE#         1968
  C:6EEEH         LINE#         1969
  -------         ENDPROC       FUN76
  -------         PROC          FUN77
  C:70CDH         LINE#         1971
  C:70CDH         LINE#         1972
  C:70CDH         LINE#         1973
  C:70D3H         LINE#         1974
  C:70D3H         LINE#         1975
  C:70DCH         LINE#         1976
  C:70E1H         LINE#         1977
  C:70E1H         LINE#         1978
  C:70E7H         LINE#         1979
  C:70E7H         LINE#         1981
  C:70E7H         LINE#         1986
  C:70EAH         LINE#         1987
  C:70EFH         LINE#         1988
  C:70EFH         LINE#         1989
  -------         ENDPROC       FUN77
  -------         PROC          FUN78
  C:6EEFH         LINE#         1991
  C:6EEFH         LINE#         1992
  C:6EEFH         LINE#         1993
  C:6EF5H         LINE#         1994
  C:6EF5H         LINE#         1995
  C:6EFEH         LINE#         1996
  C:6F03H         LINE#         1997
  C:6F03H         LINE#         1998
  C:6F09H         LINE#         1999
  C:6F09H         LINE#         2001
  C:6F0EH         LINE#         2006
  C:6F11H         LINE#         2007
BL51 BANKED LINKER/LOCATER V6.22                                                      04/11/2016  14:38:45  PAGE 95


  C:6F16H         LINE#         2008
  C:6F16H         LINE#         2009
  -------         ENDPROC       FUN78
  -------         PROC          FUN79
  C:6F17H         LINE#         2011
  C:6F17H         LINE#         2012
  C:6F17H         LINE#         2013
  C:6F1DH         LINE#         2014
  C:6F1DH         LINE#         2015
  C:6F26H         LINE#         2016
  C:6F2BH         LINE#         2017
  C:6F2BH         LINE#         2018
  C:6F31H         LINE#         2019
  C:6F31H         LINE#         2021
  C:6F36H         LINE#         2026
  C:6F39H         LINE#         2027
  C:6F3EH         LINE#         2028
  C:6F3EH         LINE#         2029
  -------         ENDPROC       FUN79
  -------         PROC          FUN80
  C:6F3FH         LINE#         2031
  C:6F3FH         LINE#         2032
  C:6F3FH         LINE#         2033
  C:6F45H         LINE#         2034
  C:6F45H         LINE#         2036
  C:6F4EH         LINE#         2037
  C:6F53H         LINE#         2038
  C:6F53H         LINE#         2039
  C:6F59H         LINE#         2040
  C:6F59H         LINE#         2042
  C:6F5EH         LINE#         2047
  C:6F61H         LINE#         2048
  C:6F66H         LINE#         2049
  C:6F66H         LINE#         2050
  -------         ENDPROC       FUN80
  -------         PROC          FUN81
  C:70F0H         LINE#         2052
  C:70F0H         LINE#         2053
  C:70F0H         LINE#         2054
  C:70F6H         LINE#         2055
  C:70F6H         LINE#         2056
  C:70FFH         LINE#         2057
  C:7104H         LINE#         2058
  C:7104H         LINE#         2059
  C:710AH         LINE#         2060
  C:710AH         LINE#         2062
  C:710AH         LINE#         2067
  C:710DH         LINE#         2068
  C:7112H         LINE#         2069
  C:7112H         LINE#         2070
  -------         ENDPROC       FUN81
  -------         PROC          FUN82
  -------         DO            
  D:0007H         SYMBOL        temp
  -------         ENDDO         
  C:7628H         LINE#         2072
  C:7628H         LINE#         2073
BL51 BANKED LINKER/LOCATER V6.22                                                      04/11/2016  14:38:45  PAGE 96


  C:7628H         LINE#         2074
  C:762AH         LINE#         2075
  C:762DH         LINE#         2076
  -------         ENDPROC       FUN82
  -------         PROC          FUN83
  -------         DO            
  D:0007H         SYMBOL        temp
  -------         ENDDO         
  C:7630H         LINE#         2079
  C:7630H         LINE#         2080
  C:7630H         LINE#         2081
  C:7632H         LINE#         2082
  C:7635H         LINE#         2083
  -------         ENDPROC       FUN83
  -------         PROC          FUN84
  -------         DO            
  D:0007H         SYMBOL        temp
  -------         ENDDO         
  C:7638H         LINE#         2086
  C:7638H         LINE#         2087
  C:7638H         LINE#         2088
  C:763AH         LINE#         2089
  C:763DH         LINE#         2090
  -------         ENDPROC       FUN84
  -------         PROC          FUN85
  -------         DO            
  D:0007H         SYMBOL        temp
  -------         ENDDO         
  C:7640H         LINE#         2093
  C:7640H         LINE#         2094
  C:7640H         LINE#         2095
  C:7642H         LINE#         2096
  C:7645H         LINE#         2097
  -------         ENDPROC       FUN85
  -------         PROC          FUN86
  -------         DO            
  D:0007H         SYMBOL        temp
  -------         ENDDO         
  C:7648H         LINE#         2100
  C:7648H         LINE#         2101
  C:7648H         LINE#         2102
  C:764AH         LINE#         2103
  C:764DH         LINE#         2104
  -------         ENDPROC       FUN86
  -------         PROC          FUN87
  -------         DO            
  X:04D0H         SYMBOL        temp
  -------         ENDDO         
  C:7306H         LINE#         2107
  C:7306H         LINE#         2108
  C:7306H         LINE#         2109
  C:730BH         LINE#         2110
  C:7313H         LINE#         2111
  C:731BH         LINE#         2112
  -------         ENDPROC       FUN87
  -------         PROC          FUN88
  -------         DO            
BL51 BANKED LINKER/LOCATER V6.22                                                      04/11/2016  14:38:45  PAGE 97


  D:0007H         SYMBOL        temp
  -------         ENDDO         
  C:7650H         LINE#         2115
  C:7650H         LINE#         2116
  C:7650H         LINE#         2117
  C:7652H         LINE#         2118
  C:7655H         LINE#         2119
  -------         ENDPROC       FUN88
  -------         PROC          FUN89
  -------         DO            
  D:0007H         SYMBOL        temp
  -------         ENDDO         
  C:7519H         LINE#         2122
  C:7519H         LINE#         2123
  C:7519H         LINE#         2124
  C:751BH         LINE#         2125
  C:751EH         LINE#         2126
  C:7524H         LINE#         2127
  C:7524H         LINE#         2128
  C:7527H         LINE#         2129
  C:7527H         LINE#         2131
  C:7527H         LINE#         2132
  C:752AH         LINE#         2133
  C:752AH         LINE#         2134
  -------         ENDPROC       FUN89
  -------         PROC          FUN90
  -------         DO            
  D:0007H         SYMBOL        temp
  -------         ENDDO         
  C:7658H         LINE#         2136
  C:7658H         LINE#         2137
  C:7658H         LINE#         2138
  C:765AH         LINE#         2139
  C:765DH         LINE#         2140
  -------         ENDPROC       FUN90
  -------         PROC          FUN91
  -------         DO            
  D:0007H         SYMBOL        temp
  -------         ENDDO         
  C:7660H         LINE#         2143
  C:7660H         LINE#         2144
  C:7660H         LINE#         2145
  C:7662H         LINE#         2146
  C:7665H         LINE#         2147
  -------         ENDPROC       FUN91
  -------         PROC          FUN92
  -------         DO            
  D:0007H         SYMBOL        temp
  -------         ENDDO         
  C:7668H         LINE#         2150
  C:7668H         LINE#         2151
  C:7668H         LINE#         2152
  C:766AH         LINE#         2153
  C:766DH         LINE#         2154
  -------         ENDPROC       FUN92
  -------         PROC          FUN93
  -------         DO            
BL51 BANKED LINKER/LOCATER V6.22                                                      04/11/2016  14:38:45  PAGE 98


  X:04D0H         SYMBOL        temp
  -------         ENDDO         
  C:68A5H         LINE#         2157
  C:68A5H         LINE#         2158
  C:68A5H         LINE#         2159
  C:68AAH         LINE#         2160
  C:68B2H         LINE#         2161
  C:68B5H         LINE#         2162
  C:68C1H         LINE#         2163
  C:68C1H         LINE#         2164
  C:68C4H         LINE#         2165
  C:68CCH         LINE#         2166
  C:68D2H         LINE#         2167
  C:68D2H         LINE#         2168
  C:68D9H         LINE#         2170
  C:68DEH         LINE#         2171
  C:68DEH         LINE#         2172
  C:68DEH         LINE#         2173
  -------         ENDPROC       FUN93
  -------         PROC          FUN94
  -------         DO            
  X:04D0H         SYMBOL        temp
  -------         ENDDO         
  C:6989H         LINE#         2175
  C:6989H         LINE#         2176
  C:6989H         LINE#         2177
  C:698EH         LINE#         2178
  C:6996H         LINE#         2179
  C:6999H         LINE#         2180
  C:699FH         LINE#         2181
  C:699FH         LINE#         2182
  C:69ACH         LINE#         2183
  C:69ACH         LINE#         2184
  C:69B2H         LINE#         2185
  C:69B2H         LINE#         2186
  C:69B9H         LINE#         2187
  C:69BEH         LINE#         2188
  C:69BEH         LINE#         2189
  -------         ENDPROC       FUN94
  -------         PROC          FUN95
  -------         DO            
  X:04D0H         SYMBOL        Two_Menu_F6_E1_temp
  X:04D1H         SYMBOL        Two_Menu_F6_E8_temp
  -------         ENDDO         
  C:663CH         LINE#         2191
  C:663CH         LINE#         2192
  C:663CH         LINE#         2193
  C:6641H         LINE#         2194
  C:6643H         LINE#         2195
  C:664BH         LINE#         2196
  C:6653H         LINE#         2200
  C:665AH         LINE#         2201
  C:665AH         LINE#         2202
  C:665DH         LINE#         2203
  C:665DH         LINE#         2204
  C:6664H         LINE#         2205
  C:6664H         LINE#         2206
BL51 BANKED LINKER/LOCATER V6.22                                                      04/11/2016  14:38:45  PAGE 99


  C:6664H         LINE#         2207
  C:6666H         LINE#         2208
  C:666CH         LINE#         2209
  C:666CH         LINE#         2210
  C:666EH         LINE#         2211
  C:666FH         LINE#         2213
  C:666FH         LINE#         2214
  C:6675H         LINE#         2215
  C:6675H         LINE#         2216
  C:6677H         LINE#         2217
  C:667CH         LINE#         2218
  C:667CH         LINE#         2219
  C:6682H         LINE#         2220
  C:6682H         LINE#         2221
  C:6684H         LINE#         2222
  C:6689H         LINE#         2223
  C:6689H         LINE#         2224
  C:6689H         LINE#         2227
  -------         ENDPROC       FUN95
  -------         PROC          FUN96
  C:780DH         LINE#         2229
  C:780DH         LINE#         2230
  C:780DH         LINE#         2231
  -------         ENDPROC       FUN96
  -------         PROC          FUN97
  -------         DO            
  D:0007H         SYMBOL        temp
  -------         ENDDO         
  C:7670H         LINE#         2234
  C:7670H         LINE#         2235
  C:7670H         LINE#         2236
  C:7672H         LINE#         2237
  C:7675H         LINE#         2238
  -------         ENDPROC       FUN97
  -------         PROC          FUN98
  C:7812H         LINE#         2241
  C:7812H         LINE#         2242
  C:7812H         LINE#         2243
  -------         ENDPROC       FUN98
  -------         PROC          FUN99
  -------         DO            
  D:0007H         SYMBOL        temp
  -------         ENDDO         
  C:7678H         LINE#         2246
  C:7678H         LINE#         2247
  C:7678H         LINE#         2248
  C:767AH         LINE#         2249
  C:767DH         LINE#         2250
  -------         ENDPROC       FUN99
  -------         PROC          FUN100
  C:7817H         LINE#         2253
  C:7817H         LINE#         2254
  C:7817H         LINE#         2255
  -------         ENDPROC       FUN100
  -------         PROC          FUN101
  -------         DO            
  D:0007H         SYMBOL        temp
BL51 BANKED LINKER/LOCATER V6.22                                                      04/11/2016  14:38:45  PAGE 100


  -------         ENDDO         
  C:7680H         LINE#         2258
  C:7680H         LINE#         2259
  C:7680H         LINE#         2260
  C:7682H         LINE#         2261
  C:7685H         LINE#         2262
  -------         ENDPROC       FUN101
  -------         PROC          FUN102
  C:781CH         LINE#         2265
  C:781CH         LINE#         2266
  C:781CH         LINE#         2267
  -------         ENDPROC       FUN102
  -------         PROC          FUN103
  C:73FDH         LINE#         2270
  C:73FDH         LINE#         2271
  C:73FDH         LINE#         2272
  C:7402H         LINE#         2273
  C:7409H         LINE#         2274
  C:740DH         LINE#         2275
  C:7411H         LINE#         2276
  -------         ENDPROC       FUN103
  -------         PROC          FUN104
  C:752BH         LINE#         2278
  C:752BH         LINE#         2279
  C:752BH         LINE#         2280
  C:7530H         LINE#         2281
  C:7537H         LINE#         2282
  C:753BH         LINE#         2283
  -------         ENDPROC       FUN104
  -------         PROC          FUN105
  -------         DO            
  X:04D0H         SYMBOL        eeprom_buf
  X:04D8H         SYMBOL        i
  -------         ENDDO         
  C:5AF2H         LINE#         2285
  C:5AF2H         LINE#         2286
  C:5AF2H         LINE#         2289
  C:5AF8H         LINE#         2290
  C:5AF8H         LINE#         2291
  C:5AFEH         LINE#         2292
  C:5AFEH         LINE#         2293
  C:5B01H         LINE#         2294
  C:5B07H         LINE#         2295
  C:5B09H         LINE#         2296
  C:5B0CH         LINE#         2297
  C:5B11H         LINE#         2298
  C:5B11H         LINE#         2299
  C:5B17H         LINE#         2300
  C:5B17H         LINE#         2301
  C:5B1AH         LINE#         2302
  C:5B1DH         LINE#         2303
  C:5B22H         LINE#         2304
  C:5B22H         LINE#         2305
  C:5B3BH         LINE#         2307
  C:5B40H         LINE#         2308
  C:5B4FH         LINE#         2309
  C:5B4FH         LINE#         2310
BL51 BANKED LINKER/LOCATER V6.22                                                      04/11/2016  14:38:45  PAGE 101


  C:5B5EH         LINE#         2311
  C:5B66H         LINE#         2312
  C:5B6BH         LINE#         2313
  C:5B71H         LINE#         2314
  C:5B72H         LINE#         2315
  C:5B7AH         LINE#         2316
  C:5B7AH         LINE#         2317
  C:5B88H         LINE#         2318
  C:5B91H         LINE#         2319
  C:5B91H         LINE#         2320
  C:5B97H         LINE#         2321
  C:5B98H         LINE#         2323
  C:5B98H         LINE#         2324
  C:5B9DH         LINE#         2325
  C:5B9DH         LINE#         2327
  C:5B9EH         LINE#         2328
  C:5BA2H         LINE#         2329
  C:5BA2H         LINE#         2330
  C:5BA5H         LINE#         2331
  C:5BABH         LINE#         2332
  C:5BADH         LINE#         2333
  C:5BAFH         LINE#         2334
  C:5BB1H         LINE#         2335
  C:5BB4H         LINE#         2336
  C:5BB4H         LINE#         2338
  -------         ENDPROC       FUN105
  -------         PROC          FUN106
  C:5E6AH         LINE#         2340
  C:5E6AH         LINE#         2341
  C:5E6AH         LINE#         2344
  C:5E71H         LINE#         2345
  C:5E71H         LINE#         2346
  C:5E8AH         LINE#         2348
  C:5E98H         LINE#         2349
  C:5E9DH         LINE#         2350
  C:5EA2H         LINE#         2366
  C:5EA2H         LINE#         2367
  C:5EACH         LINE#         2368
  C:5EACH         LINE#         2369
  C:5EAFH         LINE#         2370
  C:5EB4H         LINE#         2371
  C:5EB4H         LINE#         2372
  C:5EB6H         LINE#         2373
  C:5EC2H         LINE#         2374
  C:5EC2H         LINE#         2375
  C:5EC5H         LINE#         2376
  C:5ECBH         LINE#         2377
  C:5ECDH         LINE#         2378
  C:5ECFH         LINE#         2379
  C:5ED1H         LINE#         2380
  C:5ED4H         LINE#         2381
  C:5ED4H         LINE#         2383
  C:5ED4H         LINE#         2384
  C:5EDAH         LINE#         2385
  C:5EDAH         LINE#         2386
  C:5EDDH         LINE#         2387
  C:5EE3H         LINE#         2388
BL51 BANKED LINKER/LOCATER V6.22                                                      04/11/2016  14:38:45  PAGE 102


  C:5EE5H         LINE#         2389
  C:5EE8H         LINE#         2390
  C:5EEDH         LINE#         2391
  C:5EEDH         LINE#         2392
  C:5EF3H         LINE#         2393
  C:5EF3H         LINE#         2394
  C:5EF6H         LINE#         2395
  C:5EF9H         LINE#         2396
  C:5EFEH         LINE#         2397
  C:5EFEH         LINE#         2398
  C:5EFEH         LINE#         2400
  -------         ENDPROC       FUN106
  -------         ENDMOD        TM1629

  -------         MODULE        TIMER
  C:0000H         SYMBOL        _ICE_DUMMY_
  X:05FFH         PUBLIC        logout_cycle_number
  D:0080H         PUBLIC        P0
  D:0090H         PUBLIC        P1
  D:00A0H         PUBLIC        P2
  C:7745H         PUBLIC        return_logout_cycle_table
  D:00B0H         PUBLIC        P3
  D:00C0H         PUBLIC        P4
  C:7781H         PUBLIC        _set_second_filter_table
  D:00C8H         PUBLIC        P5
  X:0600H         PUBLIC        second_times
  B:00A8H.7       PUBLIC        EA
  D:00E8H         PUBLIC        P6
  X:0601H         PUBLIC        await_number
  D:00F8H         PUBLIC        P7
  X:0602H         PUBLIC        again_and_again_time
  D:00A8H         PUBLIC        IE
  X:0603H         PUBLIC        filter_other
  X:0604H         PUBLIC        return_standby_time
  X:0605H         PUBLIC        filter_main
  C:7769H         PUBLIC        return_filter_other
  C:7763H         PUBLIC        return_filter_main
  D:00B8H         PUBLIC        IP
  C:772DH         PUBLIC        _set_await_number_table
  D:00D8H         PUBLIC        CCON
  C:756FH         PUBLIC        Init_Timer0
  C:774BH         PUBLIC        _set_logout_cycle_table
  C:75AAH         PUBLIC        Init_Timer1
  D:0098H         PUBLIC        SCON
  C:773FH         PUBLIC        clear_main_press_time
  D:0089H         PUBLIC        TMOD
  D:0088H         PUBLIC        TCON
  X:0606H         PUBLIC        fd_table
  X:0607H         PUBLIC        main_press_time_table
  B:00C8H.5       PUBLIC        P55
  C:775DH         PUBLIC        return_fd_table
  C:776FH         PUBLIC        _set_filter_other
  C:75CEH         PUBLIC        _set_filter_main
  B:00A8H.1       PUBLIC        ET0
  X:0608H         PUBLIC        main_press_time
  B:0088H.5       PUBLIC        TF0
  B:00A8H.3       PUBLIC        ET1
BL51 BANKED LINKER/LOCATER V6.22                                                      04/11/2016  14:38:45  PAGE 103


  B:0088H.7       PUBLIC        TF1
  D:008CH         PUBLIC        TH0
  D:008DH         PUBLIC        TH1
  C:7739H         PUBLIC        return_main_press_time
  D:008AH         PUBLIC        TL0
  D:008BH         PUBLIC        TL1
  X:0609H         PUBLIC        second_filter_table
  B:0088H.4       PUBLIC        TR0
  C:7787H         PUBLIC        return_second_filter_table
  C:4820H         PUBLIC        Timer0_isr
  C:75C3H         PUBLIC        _set_fd_table
  C:7733H         PUBLIC        _set_main_press_time_table
  C:64FFH         PUBLIC        Timer1_isr
  C:777BH         PUBLIC        clear_second_filter_time
  X:060AH         PUBLIC        await_number_table
  C:7727H         PUBLIC        return_await_number_table
  C:7775H         PUBLIC        clear_again_and_again_time
  C:7757H         PUBLIC        _set_main_press_time
  D:00D0H         PUBLIC        PSW
  C:7751H         PUBLIC        clear_return_standby_time
  X:060BH         PUBLIC        second_filter_time
  X:060CH         PUBLIC        logout_cycle_table
  -------         PROC          INIT_TIMER0
  C:756FH         LINE#         30
  C:756FH         LINE#         31
  C:756FH         LINE#         32
  C:7572H         LINE#         33
  C:7575H         LINE#         34
  C:7578H         LINE#         35
  C:757AH         LINE#         36
  C:757CH         LINE#         37
  C:757EH         LINE#         38
  -------         ENDPROC       INIT_TIMER0
  -------         PROC          INIT_TIMER1
  C:75AAH         LINE#         40
  C:75AAH         LINE#         41
  C:75AAH         LINE#         42
  C:75ADH         LINE#         43
  C:75B0H         LINE#         44
  C:75B3H         LINE#         45
  C:75B5H         LINE#         46
  C:75B7H         LINE#         48
  -------         ENDPROC       INIT_TIMER1
  -------         PROC          TIMER0_ISR
  -------         DO            
  X:051EH         SYMBOL        func_index_temp
  X:051FH         SYMBOL        Two_Menu_FC_E1_temp
  -------         ENDDO         
  C:4820H         LINE#         50
  C:483DH         LINE#         52
  C:4842H         LINE#         53
  C:4844H         LINE#         54
  C:4846H         LINE#         55
  C:4849H         LINE#         56
  C:484CH         LINE#         57
  C:4854H         LINE#         58
  C:485CH         LINE#         65
BL51 BANKED LINKER/LOCATER V6.22                                                      04/11/2016  14:38:45  PAGE 104


  C:485CH         LINE#         66
  C:485CH         LINE#         67
  C:4862H         LINE#         68
  C:4866H         LINE#         69
  C:4866H         LINE#         70
  C:486CH         LINE#         71
  C:4872H         LINE#         72
  C:4877H         LINE#         73
  C:487DH         LINE#         74
  C:487DH         LINE#         75
  C:487FH         LINE#         76
  C:487FH         LINE#         78
  C:487FH         LINE#         79
  C:4888H         LINE#         80
  C:4888H         LINE#         81
  C:488AH         LINE#         82
  C:488AH         LINE#         83
  C:4893H         LINE#         84
  C:4893H         LINE#         85
  C:4895H         LINE#         86
  C:4895H         LINE#         87
  C:489BH         LINE#         88
  C:489BH         LINE#         89
  C:489DH         LINE#         90
  C:489DH         LINE#         91
  C:489DH         LINE#         93
  C:48A4H         LINE#         94
  C:48A4H         LINE#         95
  C:48A8H         LINE#         96
  C:48A8H         LINE#         98
  C:48AEH         LINE#         99
  C:48AEH         LINE#         100
  C:48B4H         LINE#         101
  C:48BAH         LINE#         102
  C:48BAH         LINE#         103
  C:48BDH         LINE#         104
  C:48C2H         LINE#         105
  C:48C2H         LINE#         106
  C:48C2H         LINE#         108
  C:48C9H         LINE#         109
  C:48C9H         LINE#         110
  C:48CFH         LINE#         111
  C:48D5H         LINE#         112
  C:48D5H         LINE#         113
  C:48DAH         LINE#         114
  C:48DEH         LINE#         115
  C:48DEH         LINE#         116
  C:48DEH         LINE#         118
  C:48E6H         LINE#         119
  C:48E6H         LINE#         120
  C:48ECH         LINE#         121
  C:48F0H         LINE#         122
  C:48F0H         LINE#         123
  C:48F6H         LINE#         124
  C:48FBH         LINE#         125
  C:48FBH         LINE#         127
  C:48FBH         LINE#         129
BL51 BANKED LINKER/LOCATER V6.22                                                      04/11/2016  14:38:45  PAGE 105


  C:4913H         LINE#         133
  C:4913H         LINE#         134
  C:4919H         LINE#         135
  C:491FH         LINE#         136
  C:491FH         LINE#         137
  C:4921H         LINE#         138
  C:4925H         LINE#         139
  C:4925H         LINE#         140
  C:4925H         LINE#         142
  C:4930H         LINE#         143
  C:4930H         LINE#         144
  C:4936H         LINE#         145
  C:493CH         LINE#         146
  C:493CH         LINE#         147
  C:493EH         LINE#         148
  C:4940H         LINE#         149
  C:4940H         LINE#         150
  C:4940H         LINE#         152
  -------         ENDPROC       TIMER0_ISR
  -------         PROC          TIMER1_ISR
  -------         DO            
  D:0007H         SYMBOL        func_index_temp
  -------         ENDDO         
  C:64FFH         LINE#         154
  C:651CH         LINE#         156
  C:651EH         LINE#         157
  C:6521H         LINE#         158
  C:6523H         LINE#         159
  C:6526H         LINE#         160
  C:6529H         LINE#         161
  C:652DH         LINE#         162
  C:652DH         LINE#         163
  C:6530H         LINE#         164
  C:6532H         LINE#         166
  C:6532H         LINE#         167
  C:6535H         LINE#         168
  C:6535H         LINE#         170
  -------         ENDPROC       TIMER1_ISR
  -------         PROC          RETURN_AWAIT_NUMBER_TABLE
  -------         DO            
  D:0007H         SYMBOL        await_number_table_temp
  -------         ENDDO         
  C:7727H         LINE#         172
  C:7727H         LINE#         173
  C:7727H         LINE#         174
  C:7727H         LINE#         175
  C:772CH         LINE#         176
  C:772CH         LINE#         177
  -------         ENDPROC       RETURN_AWAIT_NUMBER_TABLE
  -------         PROC          _SET_AWAIT_NUMBER_TABLE
  D:0007H         SYMBOL        temp
  C:772DH         LINE#         179
  C:772DH         LINE#         180
  C:772DH         LINE#         181
  C:7732H         LINE#         182
  -------         ENDPROC       _SET_AWAIT_NUMBER_TABLE
  -------         PROC          _SET_MAIN_PRESS_TIME_TABLE
BL51 BANKED LINKER/LOCATER V6.22                                                      04/11/2016  14:38:45  PAGE 106


  D:0007H         SYMBOL        temp
  C:7733H         LINE#         184
  C:7733H         LINE#         185
  C:7733H         LINE#         186
  C:7738H         LINE#         187
  -------         ENDPROC       _SET_MAIN_PRESS_TIME_TABLE
  -------         PROC          RETURN_MAIN_PRESS_TIME
  -------         DO            
  D:0007H         SYMBOL        temp
  -------         ENDDO         
  C:7739H         LINE#         189
  C:7739H         LINE#         190
  C:7739H         LINE#         191
  C:7739H         LINE#         192
  C:773EH         LINE#         193
  C:773EH         LINE#         194
  -------         ENDPROC       RETURN_MAIN_PRESS_TIME
  -------         PROC          CLEAR_MAIN_PRESS_TIME
  C:773FH         LINE#         196
  C:773FH         LINE#         197
  C:773FH         LINE#         198
  C:7744H         LINE#         199
  -------         ENDPROC       CLEAR_MAIN_PRESS_TIME
  -------         PROC          RETURN_LOGOUT_CYCLE_TABLE
  -------         DO            
  D:0007H         SYMBOL        temp
  -------         ENDDO         
  C:7745H         LINE#         201
  C:7745H         LINE#         202
  C:7745H         LINE#         203
  C:7745H         LINE#         204
  C:774AH         LINE#         205
  C:774AH         LINE#         206
  -------         ENDPROC       RETURN_LOGOUT_CYCLE_TABLE
  -------         PROC          _SET_LOGOUT_CYCLE_TABLE
  D:0007H         SYMBOL        temp
  C:774BH         LINE#         208
  C:774BH         LINE#         209
  C:774BH         LINE#         210
  C:7750H         LINE#         211
  -------         ENDPROC       _SET_LOGOUT_CYCLE_TABLE
  -------         PROC          CLEAR_RETURN_STANDBY_TIME
  C:7751H         LINE#         213
  C:7751H         LINE#         214
  C:7751H         LINE#         215
  C:7756H         LINE#         216
  -------         ENDPROC       CLEAR_RETURN_STANDBY_TIME
  -------         PROC          _SET_MAIN_PRESS_TIME
  D:0007H         SYMBOL        temp
  C:7757H         LINE#         218
  C:7757H         LINE#         219
  C:7757H         LINE#         220
  C:775CH         LINE#         221
  -------         ENDPROC       _SET_MAIN_PRESS_TIME
  -------         PROC          RETURN_FD_TABLE
  -------         DO            
  D:0007H         SYMBOL        fd_table_temp
BL51 BANKED LINKER/LOCATER V6.22                                                      04/11/2016  14:38:45  PAGE 107


  -------         ENDDO         
  C:775DH         LINE#         223
  C:775DH         LINE#         224
  C:775DH         LINE#         225
  C:775DH         LINE#         226
  C:7762H         LINE#         227
  C:7762H         LINE#         228
  -------         ENDPROC       RETURN_FD_TABLE
  -------         PROC          _SET_FD_TABLE
  D:0007H         SYMBOL        temp
  C:75C3H         LINE#         230
  C:75C3H         LINE#         231
  C:75C3H         LINE#         232
  C:75C8H         LINE#         233
  C:75CDH         LINE#         234
  -------         ENDPROC       _SET_FD_TABLE
  -------         PROC          RETURN_FILTER_MAIN
  -------         DO            
  D:0007H         SYMBOL        filter_main_temp
  -------         ENDDO         
  C:7763H         LINE#         236
  C:7763H         LINE#         237
  C:7763H         LINE#         238
  C:7763H         LINE#         239
  C:7768H         LINE#         240
  C:7768H         LINE#         241
  -------         ENDPROC       RETURN_FILTER_MAIN
  -------         PROC          _SET_FILTER_MAIN
  D:0007H         SYMBOL        temp
  C:75CEH         LINE#         243
  C:75CEH         LINE#         244
  C:75CEH         LINE#         245
  C:75D3H         LINE#         246
  C:75D8H         LINE#         247
  -------         ENDPROC       _SET_FILTER_MAIN
  -------         PROC          RETURN_FILTER_OTHER
  -------         DO            
  D:0007H         SYMBOL        filter_other_temp
  -------         ENDDO         
  C:7769H         LINE#         249
  C:7769H         LINE#         250
  C:7769H         LINE#         251
  C:7769H         LINE#         252
  C:776EH         LINE#         253
  C:776EH         LINE#         254
  -------         ENDPROC       RETURN_FILTER_OTHER
  -------         PROC          _SET_FILTER_OTHER
  D:0007H         SYMBOL        temp
  C:776FH         LINE#         256
  C:776FH         LINE#         257
  C:776FH         LINE#         258
  C:7774H         LINE#         259
  -------         ENDPROC       _SET_FILTER_OTHER
  -------         PROC          CLEAR_AGAIN_AND_AGAIN_TIME
  C:7775H         LINE#         261
  C:7775H         LINE#         262
  C:7775H         LINE#         263
BL51 BANKED LINKER/LOCATER V6.22                                                      04/11/2016  14:38:45  PAGE 108


  C:777AH         LINE#         264
  -------         ENDPROC       CLEAR_AGAIN_AND_AGAIN_TIME
  -------         PROC          CLEAR_SECOND_FILTER_TIME
  C:777BH         LINE#         266
  C:777BH         LINE#         267
  C:777BH         LINE#         268
  C:7780H         LINE#         269
  -------         ENDPROC       CLEAR_SECOND_FILTER_TIME
  -------         PROC          _SET_SECOND_FILTER_TABLE
  D:0007H         SYMBOL        temp
  C:7781H         LINE#         271
  C:7781H         LINE#         272
  C:7781H         LINE#         273
  C:7786H         LINE#         274
  -------         ENDPROC       _SET_SECOND_FILTER_TABLE
  -------         PROC          RETURN_SECOND_FILTER_TABLE
  -------         DO            
  D:0007H         SYMBOL        second_filter_table_temp
  -------         ENDDO         
  C:7787H         LINE#         276
  C:7787H         LINE#         277
  C:7787H         LINE#         278
  C:7787H         LINE#         279
  C:778CH         LINE#         280
  C:778CH         LINE#         281
  -------         ENDPROC       RETURN_SECOND_FILTER_TABLE
  -------         ENDMOD        TIMER

  -------         MODULE        DS1302
  C:0000H         SYMBOL        _ICE_DUMMY_
  D:0080H         PUBLIC        P0
  D:0090H         PUBLIC        P1
  X:05DFH         PUBLIC        time_buf1
  D:00A0H         PUBLIC        P2
  D:00B0H         PUBLIC        P3
  D:00C0H         PUBLIC        P4
  D:00C8H         PUBLIC        P5
  D:00E8H         PUBLIC        P6
  D:00F8H         PUBLIC        P7
  D:00A8H         PUBLIC        IE
  B:00A0H.1       PUBLIC        DS1302_SDA
  D:00B8H         PUBLIC        IP
  B:00A0H.2       PUBLIC        DS1302_SCK
  D:00D8H         PUBLIC        CCON
  D:0098H         PUBLIC        SCON
  D:0088H         PUBLIC        TCON
  B:00A0H.0       PUBLIC        DS1302_RST
  C:6137H         PUBLIC        Ds1302_Read_Time
  X:05E7H         PUBLIC        time_buf
  C:67EDH         PUBLIC        _Ds1302_Read_Byte
  C:5F91H         PUBLIC        Ds1302_Write_Time
  C:67B2H         PUBLIC        _Ds1302_Write_Byte
  C:75D9H         PUBLIC        Ds1302_Init
  D:00D0H         PUBLIC        PSW
  -------         PROC          L?0032
  -------         ENDPROC       L?0032
  -------         PROC          _DS1302_WRITE_BYTE
BL51 BANKED LINKER/LOCATER V6.22                                                      04/11/2016  14:38:45  PAGE 109


  D:0007H         SYMBOL        addr
  D:0005H         SYMBOL        d
  -------         DO            
  D:0006H         SYMBOL        i
  -------         ENDDO         
  C:67B2H         LINE#         9
  C:67B2H         LINE#         10
  C:67B2H         LINE#         13
  C:67B4H         LINE#         16
  C:67B8H         LINE#         17
  C:67BAH         LINE#         18
  C:67BAH         LINE#         19
  C:67BEH         LINE#         20
  C:67BEH         LINE#         21
  C:67C0H         LINE#         22
  C:67C2H         LINE#         24
  C:67C2H         LINE#         25
  C:67C4H         LINE#         26
  C:67C4H         LINE#         27
  C:67C6H         LINE#         28
  C:67C8H         LINE#         29
  C:67CCH         LINE#         30
  C:67D1H         LINE#         33
  C:67D3H         LINE#         34
  C:67D3H         LINE#         35
  C:67D7H         LINE#         36
  C:67D7H         LINE#         37
  C:67D9H         LINE#         38
  C:67DBH         LINE#         40
  C:67DBH         LINE#         41
  C:67DDH         LINE#         42
  C:67DDH         LINE#         43
  C:67DFH         LINE#         44
  C:67E1H         LINE#         45
  C:67E5H         LINE#         46
  C:67EAH         LINE#         47
  C:67ECH         LINE#         48
  -------         ENDPROC       _DS1302_WRITE_BYTE
  -------         PROC          _DS1302_READ_BYTE
  D:0007H         SYMBOL        addr
  -------         DO            
  D:0005H         SYMBOL        i
  D:0006H         SYMBOL        temp
  -------         ENDDO         
  C:67EDH         LINE#         53
  C:67EDH         LINE#         54
  C:67EDH         LINE#         58
  C:67EFH         LINE#         61
  C:67F3H         LINE#         62
  C:67F5H         LINE#         63
  C:67F5H         LINE#         65
  C:67F9H         LINE#         66
  C:67F9H         LINE#         67
  C:67FBH         LINE#         68
  C:67FDH         LINE#         70
  C:67FDH         LINE#         71
  C:67FFH         LINE#         72
BL51 BANKED LINKER/LOCATER V6.22                                                      04/11/2016  14:38:45  PAGE 110


  C:67FFH         LINE#         73
  C:6801H         LINE#         74
  C:6803H         LINE#         75
  C:6807H         LINE#         76
  C:680CH         LINE#         79
  C:680EH         LINE#         80
  C:680EH         LINE#         81
  C:6812H         LINE#         82
  C:6815H         LINE#         83
  C:6815H         LINE#         84
  C:6818H         LINE#         85
  C:681AH         LINE#         87
  C:681AH         LINE#         88
  C:681EH         LINE#         89
  C:681EH         LINE#         90
  C:6820H         LINE#         91
  C:6822H         LINE#         92
  C:6827H         LINE#         94
  C:6829H         LINE#         95
  C:682BH         LINE#         96
  -------         ENDPROC       _DS1302_READ_BYTE
  -------         PROC          DS1302_WRITE_TIME
  -------         DO            
  D:0007H         SYMBOL        i
  D:0005H         SYMBOL        tmp
  -------         ENDDO         
  C:5F91H         LINE#         101
  C:5F91H         LINE#         102
  C:5F91H         LINE#         105
  C:5F93H         LINE#         106
  C:5F93H         LINE#         107
  C:5FA4H         LINE#         108
  C:5FB6H         LINE#         109
  C:5FC8H         LINE#         110
  C:5FCDH         LINE#         111
  C:5FD4H         LINE#         112
  C:5FDBH         LINE#         114
  C:5FE5H         LINE#         115
  C:5FEDH         LINE#         116
  C:5FF5H         LINE#         117
  C:5FFBH         LINE#         118
  C:6005H         LINE#         119
  C:600DH         LINE#         120
  C:6015H         LINE#         121
  C:6019H         LINE#         122
  -------         ENDPROC       DS1302_WRITE_TIME
  -------         PROC          DS1302_READ_TIME
  -------         DO            
  D:0007H         SYMBOL        i
  D:0005H         SYMBOL        tmp
  -------         ENDDO         
  C:6137H         LINE#         128
  C:6137H         LINE#         129
  C:6137H         LINE#         131
  C:6141H         LINE#         132
  C:6149H         LINE#         133
  C:6151H         LINE#         134
BL51 BANKED LINKER/LOCATER V6.22                                                      04/11/2016  14:38:45  PAGE 111


  C:6159H         LINE#         135
  C:6161H         LINE#         136
  C:616BH         LINE#         137
  C:6173H         LINE#         140
  C:6175H         LINE#         141
  C:6175H         LINE#         142
  C:6185H         LINE#         143
  C:6195H         LINE#         144
  C:61A8H         LINE#         145
  C:61ADH         LINE#         146
  -------         ENDPROC       DS1302_READ_TIME
  -------         PROC          DS1302_INIT
  C:75D9H         LINE#         151
  C:75D9H         LINE#         152
  C:75D9H         LINE#         154
  C:75DBH         LINE#         155
  C:75DDH         LINE#         156
  -------         ENDPROC       DS1302_INIT
  -------         ENDMOD        DS1302

  -------         MODULE        EV1527
  C:0000H         SYMBOL        _ICE_DUMMY_
  D:0080H         PUBLIC        P0
  D:0090H         PUBLIC        P1
  D:00A0H         PUBLIC        P2
  C:7323H         PUBLIC        RF_ini_receive
  D:00B0H         PUBLIC        P3
  D:00C0H         PUBLIC        P4
  X:058BH         PUBLIC        RF_trans0_test_count
  D:00C8H         PUBLIC        P5
  X:058DH         PUBLIC        RF_trans1_test_count
  B:00A8H.7       PUBLIC        EA
  D:00E8H         PUBLIC        P6
  D:00F8H         PUBLIC        P7
  X:058FH         PUBLIC        receive_rf_decoder_finished
  C:779FH         PUBLIC        clear_again_and_again_decoder_table
  D:00A8H         PUBLIC        IE
  X:0590H         PUBLIC        P_RF_INT
  X:0591H         PUBLIC        Timer0_interrupt_count
  C:77ABH         PUBLIC        clear_register_manager
  D:00B8H         PUBLIC        IP
  X:0592H         PUBLIC        again_and_again_decoder_table
  D:00D8H         PUBLIC        CCON
  C:7799H         PUBLIC        return_again_and_again_decoder_table
  X:0593H         PUBLIC        old1_RF_RECE_REG
  X:0596H         PUBLIC        register_manager
  X:0597H         PUBLIC        old2_RF_RECE_REG
  C:77A5H         PUBLIC        return_register_manager
  X:059AH         PUBLIC        RF_trans_count
  D:0098H         PUBLIC        SCON
  D:0088H         PUBLIC        TCON
  C:75FFH         PUBLIC        return_RF_trans_count
  C:31E3H         PUBLIC        RF_decode_main_sjz_test
  X:059CH         PUBLIC        Save_RF_trans0
  X:059DH         PUBLIC        Save_RF_trans1
  B:00B0H.2       PUBLIC        P3_RF_RXD
  X:059EH         PUBLIC        measure_sync_count1_saved
BL51 BANKED LINKER/LOCATER V6.22                                                      04/11/2016  14:38:45  PAGE 112


  X:05A0H         PUBLIC        measure_sync_count2_saved
  B:0088H.0       PUBLIC        IT0
  B:00A8H.0       PUBLIC        EX0
  X:05A2H         PUBLIC        RF_trans0
  X:05A3H         PUBLIC        measure_sync_count1
  X:05A5H         PUBLIC        RF_trans1
  X:05A6H         PUBLIC        rx_table
  X:05A7H         PUBLIC        measure_sync_count2
  B:0088H.6       PUBLIC        TR1
  X:05A9H         PUBLIC        RF_RECE_REG
  C:7688H         PUBLIC        exint0
  C:7793H         PUBLIC        clear_again_receive_rf_decoder_finished
  X:05ACH         PUBLIC        RF_BIT_COUNTER
  C:458EH         PUBLIC        receive_rf_decoder
  C:4BCBH         PUBLIC        RF_decode_main
  X:05ADH         PUBLIC        again_receive_rf_decoder_finished
  C:7690H         PUBLIC        exint0_init
  C:778DH         PUBLIC        return_again_receive_rf_decoder_finished
  X:05AEH         PUBLIC        tunning_finish_count
  D:00D0H         PUBLIC        PSW
  -------         PROC          EXINT0_INIT
  C:7690H         LINE#         40
  C:7690H         LINE#         41
  C:7690H         LINE#         42
  C:7692H         LINE#         43
  C:7694H         LINE#         44
  C:7696H         LINE#         45
  -------         ENDPROC       EXINT0_INIT
  -------         PROC          EXINT0
  C:7688H         LINE#         47
  C:7688H         LINE#         49
  C:768AH         LINE#         50
  C:768DH         LINE#         51
  C:768DH         LINE#         53
  C:768FH         LINE#         54
  C:768FH         LINE#         55
  -------         ENDPROC       EXINT0
  -------         PROC          RF_INI_RECEIVE
  C:7323H         LINE#         57
  C:7323H         LINE#         58
  C:7323H         LINE#         59
  C:732CH         LINE#         60
  C:7334H         LINE#         61
  C:7338H         LINE#         62
  C:733CH         LINE#         63
  C:733EH         LINE#         64
  -------         ENDPROC       RF_INI_RECEIVE
  -------         PROC          RF_DECODE_MAIN
  C:4BCBH         LINE#         66
  C:4BCBH         LINE#         67
  C:4BCBH         LINE#         68
  C:4BCEH         LINE#         69
  C:4BCEH         LINE#         70
  C:4BD1H         LINE#         71
  C:4BD3H         LINE#         73
  C:4BD3H         LINE#         74
  C:4BD9H         LINE#         75
BL51 BANKED LINKER/LOCATER V6.22                                                      04/11/2016  14:38:45  PAGE 113


  C:4BD9H         LINE#         76
  C:4BDFH         LINE#         77
  C:4BE9H         LINE#         78
  C:4BE9H         LINE#         79
  C:4BEBH         LINE#         80
  C:4BEDH         LINE#         81
  C:4BF0H         LINE#         84
  C:4BF0H         LINE#         85
  C:4C07H         LINE#         86
  C:4C07H         LINE#         87
  C:4C07H         LINE#         88
  C:4C10H         LINE#         89
  C:4C10H         LINE#         91
  C:4C10H         LINE#         92
  C:4C10H         LINE#         93
  C:4C13H         LINE#         95
  C:4C13H         LINE#         96
  C:4C1FH         LINE#         97
  C:4C1FH         LINE#         99
  C:4C25H         LINE#         100
  C:4C2AH         LINE#         101
  C:4C2AH         LINE#         102
  C:4C2CH         LINE#         103
  C:4C2CH         LINE#         104
  C:4C46H         LINE#         105
  C:4C46H         LINE#         107
  C:4C46H         LINE#         108
  C:4C46H         LINE#         109
  C:4C49H         LINE#         111
  C:4C49H         LINE#         112
  C:4C52H         LINE#         113
  C:4C52H         LINE#         115
  C:4C55H         LINE#         116
  C:4C55H         LINE#         117
  C:4C57H         LINE#         118
  C:4C57H         LINE#         119
  C:4C5DH         LINE#         120
  C:4C62H         LINE#         122
  C:4C62H         LINE#         123
  C:4C63H         LINE#         124
  C:4C63H         LINE#         125
  C:4C6CH         LINE#         126
  C:4C6CH         LINE#         127
  C:4C74H         LINE#         128
  C:4C79H         LINE#         129
  C:4C7FH         LINE#         130
  C:4C7FH         LINE#         131
  C:4C88H         LINE#         132
  C:4C88H         LINE#         133
  C:4C88H         LINE#         134
  C:4C88H         LINE#         135
  C:4C8AH         LINE#         137
  C:4C8AH         LINE#         138
  C:4C8AH         LINE#         139
  C:4C93H         LINE#         140
  C:4C93H         LINE#         141
  C:4C9CH         LINE#         142
BL51 BANKED LINKER/LOCATER V6.22                                                      04/11/2016  14:38:45  PAGE 114


  C:4CA1H         LINE#         143
  C:4CA7H         LINE#         144
  C:4CBFH         LINE#         145
  C:4CC7H         LINE#         146
  C:4CC7H         LINE#         147
  C:4CD5H         LINE#         148
  C:4CD5H         LINE#         149
  C:4CDBH         LINE#         150
  C:4CE1H         LINE#         151
  C:4CE1H         LINE#         153
  C:4CE3H         LINE#         154
  C:4CE6H         LINE#         155
  C:4CECH         LINE#         156
  C:4CEEH         LINE#         157
  C:4CEFH         LINE#         158
  C:4CEFH         LINE#         159
  C:4CEFH         LINE#         160
  C:4CF8H         LINE#         161
  C:4CF8H         LINE#         162
  C:4CF8H         LINE#         163
  C:4CF8H         LINE#         164
  C:4CFAH         LINE#         166
  C:4CFAH         LINE#         167
  C:4CFAH         LINE#         205
  C:4CFAH         LINE#         206
  C:4CFAH         LINE#         207
  C:4CFDH         LINE#         208
  C:4CFFH         LINE#         209
  C:4D01H         LINE#         210
  C:4D01H         LINE#         211
  C:4D01H         LINE#         212
  -------         ENDPROC       RF_DECODE_MAIN
  -------         PROC          RECEIVE_RF_DECODER
  -------         DO            
  X:04F8H         SYMBOL        func_index_temp
  D:0004H         SYMBOL        dat
  X:04F9H         SYMBOL        RFtmp
  -------         ENDDO         
  C:458EH         LINE#         214
  C:458EH         LINE#         215
  C:458EH         LINE#         217
  C:4593H         LINE#         220
  C:459BH         LINE#         222
  C:45A6H         LINE#         223
  C:45A6H         LINE#         224
  C:45A7H         LINE#         225
  C:45A9H         LINE#         226
  C:45B6H         LINE#         227
  C:45B6H         LINE#         228
  C:45B6H         LINE#         229
  C:45BEH         LINE#         230
  C:45C6H         LINE#         231
  C:45CEH         LINE#         232
  C:45D4H         LINE#         233
  C:45D7H         LINE#         234
  C:45D7H         LINE#         235
  C:4604H         LINE#         236
BL51 BANKED LINKER/LOCATER V6.22                                                      04/11/2016  14:38:45  PAGE 115


  C:4604H         LINE#         237
  C:4615H         LINE#         238
  C:4615H         LINE#         239
  C:461BH         LINE#         240
  C:461BH         LINE#         241
  C:461BH         LINE#         242
  C:461BH         LINE#         243
  C:461BH         LINE#         244
  C:461BH         LINE#         245
  C:461BH         LINE#         246
  C:461BH         LINE#         248
  C:461DH         LINE#         250
  C:461DH         LINE#         251
  C:4625H         LINE#         252
  C:462DH         LINE#         253
  C:4635H         LINE#         254
  C:463BH         LINE#         255
  C:463EH         LINE#         256
  C:463EH         LINE#         258
  C:4644H         LINE#         259
  C:4647H         LINE#         260
  C:468DH         LINE#         262
  C:4699H         LINE#         263
  C:4699H         LINE#         264
  C:469FH         LINE#         265
  C:46A3H         LINE#         266
  C:46A6H         LINE#         267
  C:46A6H         LINE#         269
  C:46ABH         LINE#         270
  C:46ADH         LINE#         271
  C:46AFH         LINE#         272
  C:46B3H         LINE#         273
  C:46B5H         LINE#         274
  C:46B7H         LINE#         275
  C:46B7H         LINE#         276
  C:46B7H         LINE#         278
  C:46B7H         LINE#         280
  C:46BCH         LINE#         281
  C:46BEH         LINE#         283
  C:46BEH         LINE#         284
  C:46C6H         LINE#         285
  C:46CEH         LINE#         286
  C:46D6H         LINE#         287
  C:46D6H         LINE#         288
  C:46D6H         LINE#         289
  C:46D6H         LINE#         290
  C:46D8H         LINE#         291
  C:46D8H         LINE#         292
  -------         ENDPROC       RECEIVE_RF_DECODER
  -------         PROC          RF_DECODE_MAIN_SJZ_TEST
  C:31E3H         LINE#         294
  C:31E3H         LINE#         295
  C:31E3H         LINE#         297
  C:31E6H         LINE#         298
  C:31E6H         LINE#         299
  C:31E9H         LINE#         300
  C:31EBH         LINE#         302
BL51 BANKED LINKER/LOCATER V6.22                                                      04/11/2016  14:38:45  PAGE 116


  C:31EBH         LINE#         303
  C:31F1H         LINE#         304
  C:31F1H         LINE#         305
  C:31F7H         LINE#         306
  C:3201H         LINE#         307
  C:3201H         LINE#         308
  C:3203H         LINE#         309
  C:3205H         LINE#         310
  C:3207H         LINE#         312
  C:3207H         LINE#         313
  C:3221H         LINE#         314
  C:3221H         LINE#         315
  C:3221H         LINE#         316
  C:322AH         LINE#         317
  C:322AH         LINE#         320
  C:322CH         LINE#         321
  C:322EH         LINE#         322
  C:3231H         LINE#         324
  C:3231H         LINE#         325
  C:3254H         LINE#         326
  C:3254H         LINE#         328
  C:325AH         LINE#         329
  C:3262H         LINE#         330
  C:3265H         LINE#         331
  C:3265H         LINE#         332
  C:3268H         LINE#         333
  C:3268H         LINE#         334
  C:3294H         LINE#         335
  C:3294H         LINE#         338
  C:3297H         LINE#         339
  C:3297H         LINE#         340
  C:32A5H         LINE#         341
  C:32B3H         LINE#         342
  C:32B3H         LINE#         343
  C:32B3H         LINE#         344
  C:32B3H         LINE#         345
  C:32B6H         LINE#         347
  C:32B6H         LINE#         349
  C:32BFH         LINE#         350
  C:32BFH         LINE#         351
  C:32DBH         LINE#         352
  C:32E2H         LINE#         353
  C:32E6H         LINE#         355
  C:32E9H         LINE#         356
  C:32E9H         LINE#         357
  C:32EBH         LINE#         358
  C:32EBH         LINE#         359
  C:32F1H         LINE#         360
  C:32F6H         LINE#         362
  C:32F6H         LINE#         363
  C:32F7H         LINE#         364
  C:32F7H         LINE#         365
  C:3300H         LINE#         366
  C:3300H         LINE#         367
  C:3308H         LINE#         368
  C:330DH         LINE#         369
  C:3313H         LINE#         370
BL51 BANKED LINKER/LOCATER V6.22                                                      04/11/2016  14:38:45  PAGE 117


  C:3313H         LINE#         371
  C:333FH         LINE#         372
  C:333FH         LINE#         373
  C:333FH         LINE#         374
  C:333FH         LINE#         375
  C:3342H         LINE#         377
  C:3342H         LINE#         378
  C:3342H         LINE#         379
  C:334EH         LINE#         380
  C:334EH         LINE#         381
  C:3357H         LINE#         382
  C:335CH         LINE#         383
  C:3362H         LINE#         384
  C:3379H         LINE#         385
  C:3382H         LINE#         386
  C:3382H         LINE#         387
  C:3390H         LINE#         388
  C:3390H         LINE#         389
  C:3396H         LINE#         390
  C:339FH         LINE#         391
  C:339FH         LINE#         392
  C:33A1H         LINE#         393
  C:33B0H         LINE#         394
  C:33B3H         LINE#         397
  C:33C1H         LINE#         398
  C:33D5H         LINE#         399
  C:33E5H         LINE#         400
  C:33EDH         LINE#         402
  C:342FH         LINE#         403
  C:342FH         LINE#         404
  C:3443H         LINE#         405
  C:3453H         LINE#         406
  C:345BH         LINE#         408
  C:345BH         LINE#         410
  C:345DH         LINE#         411
  C:345EH         LINE#         412
  C:345EH         LINE#         413
  C:345EH         LINE#         414
  C:3487H         LINE#         415
  C:3487H         LINE#         416
  C:3487H         LINE#         417
  C:3487H         LINE#         418
  C:3489H         LINE#         420
  C:3489H         LINE#         421
  C:3489H         LINE#         422
  C:3489H         LINE#         423
  C:3489H         LINE#         424
  C:348CH         LINE#         425
  C:348EH         LINE#         426
  C:3490H         LINE#         427
  C:3490H         LINE#         428
  C:3490H         LINE#         429
  -------         ENDPROC       RF_DECODE_MAIN_SJZ_TEST
  -------         PROC          RETURN_AGAIN_RECEIVE_RF_DECODER_FINISHED
  -------         DO            
  D:0007H         SYMBOL        temp
  -------         ENDDO         
BL51 BANKED LINKER/LOCATER V6.22                                                      04/11/2016  14:38:45  PAGE 118


  C:778DH         LINE#         431
  C:778DH         LINE#         432
  C:778DH         LINE#         434
  C:7792H         LINE#         435
  C:7792H         LINE#         436
  -------         ENDPROC       RETURN_AGAIN_RECEIVE_RF_DECODER_FINISHED
  -------         PROC          CLEAR_AGAIN_RECEIVE_RF_DECODER_FINISHED
  C:7793H         LINE#         438
  C:7793H         LINE#         439
  C:7793H         LINE#         440
  C:7798H         LINE#         441
  -------         ENDPROC       CLEAR_AGAIN_RECEIVE_RF_DECODER_FINISHED
  -------         PROC          RETURN_AGAIN_AND_AGAIN_DECODER_TABLE
  -------         DO            
  D:0007H         SYMBOL        temp
  -------         ENDDO         
  C:7799H         LINE#         443
  C:7799H         LINE#         444
  C:7799H         LINE#         446
  C:779EH         LINE#         447
  C:779EH         LINE#         448
  -------         ENDPROC       RETURN_AGAIN_AND_AGAIN_DECODER_TABLE
  -------         PROC          CLEAR_AGAIN_AND_AGAIN_DECODER_TABLE
  C:779FH         LINE#         450
  C:779FH         LINE#         451
  C:779FH         LINE#         452
  C:77A4H         LINE#         453
  -------         ENDPROC       CLEAR_AGAIN_AND_AGAIN_DECODER_TABLE
  -------         PROC          RETURN_REGISTER_MANAGER
  -------         DO            
  D:0007H         SYMBOL        temp
  -------         ENDDO         
  C:77A5H         LINE#         455
  C:77A5H         LINE#         456
  C:77A5H         LINE#         458
  C:77AAH         LINE#         459
  C:77AAH         LINE#         460
  -------         ENDPROC       RETURN_REGISTER_MANAGER
  -------         PROC          CLEAR_REGISTER_MANAGER
  C:77ABH         LINE#         462
  C:77ABH         LINE#         463
  C:77ABH         LINE#         464
  C:77B0H         LINE#         465
  -------         ENDPROC       CLEAR_REGISTER_MANAGER
  -------         PROC          RETURN_RF_TRANS_COUNT
  -------         DO            
  D:0006H         SYMBOL        temp
  -------         ENDDO         
  C:75FFH         LINE#         467
  C:75FFH         LINE#         468
  C:75FFH         LINE#         470
  C:7607H         LINE#         471
  C:7607H         LINE#         472
  -------         ENDPROC       RETURN_RF_TRANS_COUNT
  -------         ENDMOD        EV1527

  -------         MODULE        DECODER
BL51 BANKED LINKER/LOCATER V6.22                                                      04/11/2016  14:38:45  PAGE 119


  C:0000H         SYMBOL        _ICE_DUMMY_
  D:0080H         PUBLIC        P0
  D:0090H         PUBLIC        P1
  D:00A0H         PUBLIC        P2
  D:00B0H         PUBLIC        P3
  D:00C0H         PUBLIC        P4
  D:00C8H         PUBLIC        P5
  D:00E8H         PUBLIC        P6
  D:00F8H         PUBLIC        P7
  X:05B0H         PUBLIC        repeat_times
  X:05B1H         PUBLIC        rep_saved_parameter_when_dec
  X:05BDH         PUBLIC        decoder_num
  D:00A8H         PUBLIC        IE
  C:77B7H         PUBLIC        _set_Two_menu_set_success
  D:00B8H         PUBLIC        IP
  C:0046H         PUBLIC        DecoderProcess
  D:00D8H         PUBLIC        CCON
  X:05BEH         PUBLIC        buf_eeprom
  D:0098H         PUBLIC        SCON
  D:0088H         PUBLIC        TCON
  X:05C6H         PUBLIC        P24_status_saved
  B:00A0H.4       PUBLIC        P24
  X:05C7H         PUBLIC        last_dat
  X:05CBH         PUBLIC        Two_menu_set_success
  C:77B1H         PUBLIC        return_Two_menu_set_success
  C:6766H         PUBLIC        replay_process
  D:00D0H         PUBLIC        PSW
  -------         PROC          DECODERPROCESS
  -------         DO            
  X:04CFH         SYMBOL        tmp
  X:04D7H         SYMBOL        RFtmp
  X:04DFH         SYMBOL        dat
  X:04E3H         SYMBOL        state
  X:04E5H         SYMBOL        l
  X:04E6H         SYMBOL        k
  X:04E7H         SYMBOL        index
  X:04E8H         SYMBOL        temp_buff
  X:04F0H         SYMBOL        func_index_temp
  X:04F1H         SYMBOL        Two_Menu_F8_E1_temp
  X:04F2H         SYMBOL        Two_Menu_F8_E2_temp
  X:04F3H         SYMBOL        Two_Menu_F3_E1_temp
  X:04F4H         SYMBOL        Two_Menu_F3_E2_temp
  X:04F5H         SYMBOL        Two_Menu_F7_E1_temp
  X:04F6H         SYMBOL        Two_Menu_F6_E1_temp
  X:04F7H         SYMBOL        Two_Menu_F6_E2_temp
  C:04D0H         SYMBOL        standby
  C:0C84H         SYMBOL        decoder
  -------         ENDDO         
  C:0046H         LINE#         29
  C:0046H         LINE#         30
  C:0046H         LINE#         34
  C:004DH         LINE#         35
  C:0051H         LINE#         42
  C:0055H         LINE#         43
  C:0057H         LINE#         44
  C:0059H         LINE#         45
  C:005BH         LINE#         46
BL51 BANKED LINKER/LOCATER V6.22                                                      04/11/2016  14:38:45  PAGE 120


  C:005DH         LINE#         47
  C:005FH         LINE#         48
  C:0061H         LINE#         49
  C:0063H         LINE#         51
  C:006BH         LINE#         52
  C:0073H         LINE#         53
  C:007BH         LINE#         54
  C:0083H         LINE#         55
  C:008BH         LINE#         56
  C:0093H         LINE#         57
  C:009BH         LINE#         58
  C:00A3H         LINE#         59
  C:00ABH         LINE#         61
  C:00AEH         LINE#         63
  C:00B9H         LINE#         64
  C:00B9H         LINE#         68
  C:0105H         LINE#         69
  C:013BH         LINE#         70
  C:013BH         LINE#         71
  C:013BH         LINE#         72
  C:013BH         LINE#         73
  C:0140H         LINE#         75
  C:0167H         LINE#         76
  C:0167H         LINE#         77
  C:016EH         LINE#         78
  C:016EH         LINE#         79
  C:0178H         LINE#         80
  C:017AH         LINE#         82
  C:017AH         LINE#         83
  C:018EH         LINE#         84
  C:018EH         LINE#         85
  C:019AH         LINE#         86
  C:019FH         LINE#         87
  C:01ABH         LINE#         88
  C:01B0H         LINE#         89
  C:01B8H         LINE#         90
  C:01C0H         LINE#         91
  C:01C9H         LINE#         93
  C:01DBH         LINE#         94
  C:01DBH         LINE#         98
  C:01E5H         LINE#         99
  C:01E5H         LINE#         100
  C:01EAH         LINE#         101
  C:01F7H         LINE#         102
  C:01FCH         LINE#         103
  C:0204H         LINE#         104
  C:0209H         LINE#         105
  C:0209H         LINE#         106
  C:0225H         LINE#         107
  C:0231H         LINE#         108
  C:0231H         LINE#         110
  C:0231H         LINE#         111
  C:0256H         LINE#         112
  C:0256H         LINE#         123
  C:0258H         LINE#         125
  C:0258H         LINE#         126
  C:026FH         LINE#         127
BL51 BANKED LINKER/LOCATER V6.22                                                      04/11/2016  14:38:45  PAGE 121


  C:0284H         LINE#         128
  C:0284H         LINE#         129
  C:0284H         LINE#         130
  C:0287H         LINE#         131
  C:0287H         LINE#         132
  C:0294H         LINE#         133
  C:0297H         LINE#         134
  C:029AH         LINE#         135
  C:02AFH         LINE#         136
  C:02C6H         LINE#         137
  C:02C9H         LINE#         138
  C:02CCH         LINE#         139
  C:02D1H         LINE#         142
  C:02D4H         LINE#         143
  C:02D4H         LINE#         148
  C:02FDH         LINE#         149
  C:02FDH         LINE#         150
  C:031FH         LINE#         151
  C:031FH         LINE#         152
  C:0325H         LINE#         153
  C:0325H         LINE#         154
  C:0328H         LINE#         155
  C:0328H         LINE#         159
  C:0328H         LINE#         160
  C:033CH         LINE#         161
  C:033FH         LINE#         162
  C:0344H         LINE#         163
  C:0344H         LINE#         169
  C:0351H         LINE#         170
  C:0351H         LINE#         171
  C:0357H         LINE#         172
  C:0359H         LINE#         173
  C:035FH         LINE#         174
  C:035FH         LINE#         175
  C:0365H         LINE#         176
  C:0367H         LINE#         178
  C:0367H         LINE#         179
  C:0371H         LINE#         180
  C:0371H         LINE#         185
  C:0384H         LINE#         186
  C:038DH         LINE#         188
  C:0396H         LINE#         189
  C:0396H         LINE#         193
  C:039DH         LINE#         194
  C:039DH         LINE#         196
  C:03A7H         LINE#         197
  C:03A9H         LINE#         199
  C:03A9H         LINE#         201
  C:03BDH         LINE#         202
  C:03BDH         LINE#         203
  C:03BDH         LINE#         214
  C:03CFH         LINE#         215
  C:03CFH         LINE#         223
  C:03D9H         LINE#         224
  C:03D9H         LINE#         225
  C:03DEH         LINE#         226
  C:03EBH         LINE#         227
BL51 BANKED LINKER/LOCATER V6.22                                                      04/11/2016  14:38:45  PAGE 122


  C:03F5H         LINE#         228
  C:03FDH         LINE#         229
  C:0402H         LINE#         230
  C:0402H         LINE#         231
  C:041EH         LINE#         232
  C:042AH         LINE#         233
  C:042AH         LINE#         235
  C:042AH         LINE#         236
  C:044FH         LINE#         237
  C:044FH         LINE#         246
  C:0451H         LINE#         248
  C:0451H         LINE#         252
  C:045EH         LINE#         253
  C:0461H         LINE#         254
  C:0476H         LINE#         255
  C:048DH         LINE#         256
  C:048DH         LINE#         257
  C:048DH         LINE#         258
  C:0490H         LINE#         259
  C:0490H         LINE#         261
  C:0493H         LINE#         262
  C:04A8H         LINE#         263
  C:04BFH         LINE#         264
  C:04C2H         LINE#         265
  C:04C5H         LINE#         270
  C:04CAH         LINE#         271
  C:04CAH         LINE#         272
  C:04CDH         LINE#         274
  C:04CDH         LINE#         275
  C:04CDH         LINE#         277
  C:04CDH         LINE#         279
  C:04CDH         LINE#         280
  C:04CDH         LINE#         281
  C:04D2H         LINE#         283
  C:04F9H         LINE#         284
  C:04F9H         LINE#         285
  C:0500H         LINE#         286
  C:0500H         LINE#         287
  C:050AH         LINE#         288
  C:050CH         LINE#         290
  C:050CH         LINE#         291
  C:0520H         LINE#         292
  C:0520H         LINE#         293
  C:052CH         LINE#         294
  C:0531H         LINE#         295
  C:053DH         LINE#         296
  C:0542H         LINE#         297
  C:054AH         LINE#         298
  C:0552H         LINE#         299
  C:055BH         LINE#         300
  C:0566H         LINE#         301
  C:0566H         LINE#         302
  C:0578H         LINE#         303
  C:0578H         LINE#         307
  C:0582H         LINE#         308
  C:0582H         LINE#         309
  C:0587H         LINE#         310
BL51 BANKED LINKER/LOCATER V6.22                                                      04/11/2016  14:38:45  PAGE 123


  C:0594H         LINE#         311
  C:0599H         LINE#         312
  C:05A1H         LINE#         313
  C:05A6H         LINE#         314
  C:05A6H         LINE#         315
  C:05C2H         LINE#         316
  C:05CEH         LINE#         317
  C:05CEH         LINE#         319
  C:05CEH         LINE#         320
  C:05F3H         LINE#         321
  C:05F3H         LINE#         331
  C:05F5H         LINE#         333
  C:05F5H         LINE#         334
  C:060AH         LINE#         335
  C:0621H         LINE#         336
  C:0621H         LINE#         337
  C:0621H         LINE#         338
  C:0624H         LINE#         339
  C:0624H         LINE#         340
  C:0631H         LINE#         341
  C:0634H         LINE#         342
  C:0649H         LINE#         345
  C:0660H         LINE#         347
  C:0672H         LINE#         348
  C:0672H         LINE#         349
  C:0690H         LINE#         350
  C:0698H         LINE#         351
  C:06A7H         LINE#         352
  C:06A7H         LINE#         353
  C:06B3H         LINE#         354
  C:06BBH         LINE#         356
  C:06D2H         LINE#         357
  C:06D2H         LINE#         358
  C:06D2H         LINE#         361
  C:06D5H         LINE#         362
  C:06E0H         LINE#         363
  C:06E0H         LINE#         364
  C:06ECH         LINE#         365
  C:06ECH         LINE#         366
  C:0701H         LINE#         367
  C:0718H         LINE#         368
  C:0718H         LINE#         369
  C:0718H         LINE#         370
  C:071BH         LINE#         371
  C:071BH         LINE#         372
  C:0731H         LINE#         373
  C:0731H         LINE#         374
  C:0796H         LINE#         375
  C:0796H         LINE#         376
  C:079CH         LINE#         377
  C:07BEH         LINE#         378
  C:07C1H         LINE#         379
  C:07C4H         LINE#         380
  C:07C6H         LINE#         381
  C:07C6H         LINE#         382
  C:07CFH         LINE#         384
  C:07DEH         LINE#         385
BL51 BANKED LINKER/LOCATER V6.22                                                      04/11/2016  14:38:45  PAGE 124


  C:07DEH         LINE#         386
  C:07F3H         LINE#         387
  C:07F3H         LINE#         388
  C:0805H         LINE#         389
  C:0805H         LINE#         390
  C:080DH         LINE#         391
  C:0810H         LINE#         392
  C:0825H         LINE#         393
  C:084BH         LINE#         394
  C:084BH         LINE#         395
  C:084BH         LINE#         396
  C:084EH         LINE#         398
  C:084EH         LINE#         399
  C:0856H         LINE#         400
  C:0856H         LINE#         401
  C:0856H         LINE#         403
  C:0856H         LINE#         404
  C:0856H         LINE#         406
  C:087FH         LINE#         407
  C:087FH         LINE#         408
  C:08A1H         LINE#         409
  C:08A1H         LINE#         410
  C:08A7H         LINE#         411
  C:08A7H         LINE#         412
  C:08AAH         LINE#         413
  C:08AAH         LINE#         417
  C:08AAH         LINE#         418
  C:08BEH         LINE#         419
  C:08C1H         LINE#         420
  C:08C6H         LINE#         421
  C:08C6H         LINE#         425
  C:08D3H         LINE#         426
  C:08D3H         LINE#         427
  C:08D9H         LINE#         428
  C:08DBH         LINE#         429
  C:08E1H         LINE#         430
  C:08E1H         LINE#         431
  C:08E7H         LINE#         432
  C:08E9H         LINE#         434
  C:08E9H         LINE#         435
  C:08F3H         LINE#         436
  C:08F3H         LINE#         438
  C:0906H         LINE#         439
  C:090FH         LINE#         441
  C:0918H         LINE#         442
  C:0918H         LINE#         443
  C:091FH         LINE#         444
  C:091FH         LINE#         446
  C:0929H         LINE#         447
  C:092BH         LINE#         449
  C:092BH         LINE#         451
  C:093FH         LINE#         452
  C:093FH         LINE#         453
  C:093FH         LINE#         455
  C:094AH         LINE#         456
  C:094AH         LINE#         458
  C:095CH         LINE#         459
BL51 BANKED LINKER/LOCATER V6.22                                                      04/11/2016  14:38:45  PAGE 125


  C:095CH         LINE#         467
  C:0966H         LINE#         468
  C:096BH         LINE#         469
  C:0978H         LINE#         470
  C:0982H         LINE#         471
  C:098AH         LINE#         472
  C:098FH         LINE#         473
  C:098FH         LINE#         474
  C:09ABH         LINE#         475
  C:09B7H         LINE#         476
  C:09B7H         LINE#         478
  C:09B7H         LINE#         479
  C:09DCH         LINE#         480
  C:09DCH         LINE#         488
  C:09DEH         LINE#         490
  C:09DEH         LINE#         494
  C:09F3H         LINE#         495
  C:0A0AH         LINE#         496
  C:0A0AH         LINE#         497
  C:0A0AH         LINE#         498
  C:0A0DH         LINE#         499
  C:0A0DH         LINE#         500
  C:0A1AH         LINE#         501
  C:0A1DH         LINE#         502
  C:0A32H         LINE#         503
  C:0A49H         LINE#         505
  C:0A5BH         LINE#         506
  C:0A5BH         LINE#         507
  C:0A79H         LINE#         508
  C:0A81H         LINE#         509
  C:0A90H         LINE#         510
  C:0A90H         LINE#         511
  C:0A9CH         LINE#         512
  C:0AA4H         LINE#         514
  C:0AB8H         LINE#         515
  C:0AB8H         LINE#         516
  C:0AB8H         LINE#         517
  C:0ABBH         LINE#         518
  C:0AC6H         LINE#         519
  C:0AC6H         LINE#         520
  C:0AD2H         LINE#         521
  C:0AD2H         LINE#         522
  C:0AE7H         LINE#         523
  C:0AFEH         LINE#         524
  C:0B01H         LINE#         525
  C:0B04H         LINE#         526
  C:0B07H         LINE#         527
  C:0B07H         LINE#         529
  C:0B1DH         LINE#         530
  C:0B1DH         LINE#         531
  C:0B82H         LINE#         532
  C:0B82H         LINE#         533
  C:0B88H         LINE#         534
  C:0BAAH         LINE#         535
  C:0BADH         LINE#         536
  C:0BB0H         LINE#         537
  C:0BB2H         LINE#         538
BL51 BANKED LINKER/LOCATER V6.22                                                      04/11/2016  14:38:45  PAGE 126


  C:0BB2H         LINE#         539
  C:0BBBH         LINE#         541
  C:0BC7H         LINE#         542
  C:0BC7H         LINE#         543
  C:0BD9H         LINE#         544
  C:0BD9H         LINE#         545
  C:0BEBH         LINE#         546
  C:0BEBH         LINE#         547
  C:0BF3H         LINE#         548
  C:0BF6H         LINE#         549
  C:0C0BH         LINE#         550
  C:0C31H         LINE#         551
  C:0C34H         LINE#         552
  C:0C37H         LINE#         553
  C:0C39H         LINE#         555
  C:0C39H         LINE#         556
  C:0C41H         LINE#         557
  C:0C41H         LINE#         558
  C:0C41H         LINE#         562
  C:0C44H         LINE#         563
  C:0C47H         LINE#         565
  C:0C47H         LINE#         568
  C:0C47H         LINE#         570
  C:0C47H         LINE#         572
  C:0C47H         LINE#         573
  C:0C47H         LINE#         574
  C:0C47H         LINE#         575
  C:0C47H         LINE#         576
  C:0C47H         LINE#         577
  C:0C4CH         LINE#         579
  C:0C5FH         LINE#         580
  C:0CABH         LINE#         581
  C:0CB9H         LINE#         582
  C:0CB9H         LINE#         588
  C:0CBCH         LINE#         589
  C:0CC4H         LINE#         590
  C:0CC4H         LINE#         591
  C:0CCCH         LINE#         592
  C:0CCCH         LINE#         593
  C:0CD3H         LINE#         594
  C:0CD3H         LINE#         595
  C:0CD9H         LINE#         596
  C:0CDCH         LINE#         597
  C:0CDEH         LINE#         598
  C:0CE5H         LINE#         599
  C:0CE5H         LINE#         600
  C:0CE7H         LINE#         601
  C:0CECH         LINE#         602
  C:0CEFH         LINE#         604
  C:0CEFH         LINE#         605
  C:0CF2H         LINE#         606
  C:0CF2H         LINE#         607
  C:0CF5H         LINE#         609
  C:0CF5H         LINE#         610
  C:0CF8H         LINE#         611
  C:0CF8H         LINE#         612
  C:0CF8H         LINE#         613
BL51 BANKED LINKER/LOCATER V6.22                                                      04/11/2016  14:38:45  PAGE 127


  C:0CF8H         LINE#         614
  C:0CFBH         LINE#         616
  C:0CFBH         LINE#         617
  C:0CFEH         LINE#         618
  C:0CFEH         LINE#         619
  C:0CFEH         LINE#         620
  C:0D01H         LINE#         622
  C:0D04H         LINE#         623
  C:0D04H         LINE#         624
  C:0D07H         LINE#         625
  C:0D07H         LINE#         627
  C:0D07H         LINE#         628
  C:0D07H         LINE#         629
  C:0D07H         LINE#         630
  C:0D07H         LINE#         631
  C:0D07H         LINE#         632
  C:0D0CH         LINE#         633
  C:0D1FH         LINE#         634
  C:0D6BH         LINE#         636
  C:0D79H         LINE#         637
  C:0D79H         LINE#         643
  C:0D7CH         LINE#         644
  C:0D84H         LINE#         645
  C:0D84H         LINE#         646
  C:0D8CH         LINE#         647
  C:0D8CH         LINE#         648
  C:0D93H         LINE#         649
  C:0D93H         LINE#         650
  C:0D99H         LINE#         651
  C:0D9CH         LINE#         652
  C:0D9EH         LINE#         653
  C:0DA5H         LINE#         654
  C:0DA5H         LINE#         655
  C:0DA7H         LINE#         656
  C:0DACH         LINE#         657
  C:0DAFH         LINE#         659
  C:0DAFH         LINE#         660
  C:0DB2H         LINE#         661
  C:0DB2H         LINE#         664
  C:0DB5H         LINE#         666
  C:0DB5H         LINE#         667
  C:0DB8H         LINE#         668
  C:0DB8H         LINE#         669
  C:0DB8H         LINE#         670
  C:0DB8H         LINE#         671
  C:0DBBH         LINE#         673
  C:0DBBH         LINE#         674
  C:0DBEH         LINE#         675
  C:0DBEH         LINE#         676
  C:0DBEH         LINE#         677
  C:0DC1H         LINE#         679
  C:0DC4H         LINE#         680
  C:0DC4H         LINE#         681
  C:0DC7H         LINE#         682
  C:0DC7H         LINE#         684
  C:0DC7H         LINE#         685
  C:0DC7H         LINE#         686
BL51 BANKED LINKER/LOCATER V6.22                                                      04/11/2016  14:38:45  PAGE 128


  C:0DC7H         LINE#         687
  C:0DC7H         LINE#         688
  C:0DC7H         LINE#         689
  C:0DCCH         LINE#         691
  C:0DDFH         LINE#         692
  C:0E2BH         LINE#         694
  C:0E39H         LINE#         695
  C:0E39H         LINE#         701
  C:0E3CH         LINE#         702
  C:0E44H         LINE#         703
  C:0E44H         LINE#         704
  C:0E4CH         LINE#         705
  C:0E4CH         LINE#         706
  C:0E53H         LINE#         707
  C:0E53H         LINE#         708
  C:0E59H         LINE#         709
  C:0E5CH         LINE#         710
  C:0E5EH         LINE#         711
  C:0E65H         LINE#         712
  C:0E65H         LINE#         713
  C:0E67H         LINE#         714
  C:0E6CH         LINE#         715
  C:0E6FH         LINE#         717
  C:0E6FH         LINE#         718
  C:0E72H         LINE#         719
  C:0E72H         LINE#         720
  C:0E75H         LINE#         722
  C:0E75H         LINE#         723
  C:0E78H         LINE#         724
  C:0E78H         LINE#         725
  C:0E78H         LINE#         726
  C:0E78H         LINE#         727
  C:0E7BH         LINE#         729
  C:0E7BH         LINE#         730
  C:0E7EH         LINE#         731
  C:0E7EH         LINE#         732
  C:0E7EH         LINE#         733
  C:0E81H         LINE#         735
  C:0E84H         LINE#         736
  C:0E84H         LINE#         737
  C:0E87H         LINE#         738
  C:0E87H         LINE#         739
  C:0E87H         LINE#         740
  C:0E87H         LINE#         741
  C:0E87H         LINE#         742
  C:0E87H         LINE#         743
  C:0E87H         LINE#         744
  C:0E8CH         LINE#         746
  C:0E9FH         LINE#         747
  C:0EEBH         LINE#         750
  C:0EF9H         LINE#         751
  C:0EF9H         LINE#         757
  C:0EFCH         LINE#         758
  C:0F04H         LINE#         759
  C:0F04H         LINE#         760
  C:0F0CH         LINE#         761
  C:0F0CH         LINE#         762
BL51 BANKED LINKER/LOCATER V6.22                                                      04/11/2016  14:38:45  PAGE 129


  C:0F13H         LINE#         763
  C:0F13H         LINE#         764
  C:0F19H         LINE#         765
  C:0F1CH         LINE#         766
  C:0F1EH         LINE#         767
  C:0F25H         LINE#         768
  C:0F25H         LINE#         769
  C:0F27H         LINE#         770
  C:0F2CH         LINE#         771
  C:0F2FH         LINE#         773
  C:0F2FH         LINE#         774
  C:0F35H         LINE#         775
  C:0F35H         LINE#         776
  C:0F38H         LINE#         778
  C:0F38H         LINE#         779
  C:0F3EH         LINE#         780
  C:0F41H         LINE#         781
  C:0F43H         LINE#         782
  C:0F43H         LINE#         783
  C:0F45H         LINE#         785
  C:0F45H         LINE#         786
  C:0F4BH         LINE#         787
  C:0F4EH         LINE#         788
  C:0F4EH         LINE#         789
  C:0F50H         LINE#         791
  C:0F56H         LINE#         792
  C:0F56H         LINE#         793
  C:0F58H         LINE#         794
  C:0F58H         LINE#         795
  C:0F58H         LINE#         796
  C:0F5DH         LINE#         797
  C:0F63H         LINE#         798
  C:0F6AH         LINE#         799
  C:0F6AH         LINE#         800
  C:0F7EH         LINE#         801
  C:0F8CH         LINE#         802
  C:0F8EH         LINE#         804
  C:0F8EH         LINE#         805
  C:0FA4H         LINE#         806
  C:0FB9H         LINE#         807
  C:0FB9H         LINE#         826
  C:0FB9H         LINE#         829
  C:0FB9H         LINE#         830
  C:0FB9H         LINE#         831
  C:0FBCH         LINE#         832
  C:0FBCH         LINE#         835
  C:0FBFH         LINE#         836
  -------         ENDPROC       DECODERPROCESS
  -------         PROC          RETURN_TWO_MENU_SET_SUCCESS
  -------         DO            
  D:0007H         SYMBOL        temp
  -------         ENDDO         
  C:77B1H         LINE#         839
  C:77B1H         LINE#         840
  C:77B1H         LINE#         841
  C:77B1H         LINE#         842
  C:77B6H         LINE#         843
BL51 BANKED LINKER/LOCATER V6.22                                                      04/11/2016  14:38:45  PAGE 130


  C:77B6H         LINE#         844
  -------         ENDPROC       RETURN_TWO_MENU_SET_SUCCESS
  -------         PROC          _SET_TWO_MENU_SET_SUCCESS
  D:0007H         SYMBOL        temp
  C:77B7H         LINE#         846
  C:77B7H         LINE#         847
  C:77B7H         LINE#         848
  C:77BCH         LINE#         849
  -------         ENDPROC       _SET_TWO_MENU_SET_SUCCESS
  -------         PROC          REPLAY_PROCESS
  -------         DO            
  X:04CFH         SYMBOL        report_mode
  D:0001H         SYMBOL        report_number
  D:0004H         SYMBOL        call_type
  D:0006H         SYMBOL        key_value
  -------         ENDDO         
  C:6766H         LINE#         852
  C:6766H         LINE#         853
  C:6766H         LINE#         858
  C:676EH         LINE#         859
  C:6774H         LINE#         860
  C:677EH         LINE#         861
  C:6781H         LINE#         863
  C:6784H         LINE#         864
  C:6784H         LINE#         865
  C:678DH         LINE#         866
  C:678DH         LINE#         867
  C:67A0H         LINE#         868
  C:67A7H         LINE#         869
  C:67ADH         LINE#         870
  C:67ADH         LINE#         871
  C:67ADH         LINE#         872
  -------         ENDPROC       REPLAY_PROCESS
  -------         ENDMOD        DECODER

  -------         MODULE        AT24C256
  C:0000H         SYMBOL        _ICE_DUMMY_
  D:0080H         PUBLIC        P0
  D:0090H         PUBLIC        P1
  C:4A93H         PUBLIC        _register_cancel_function
  D:00A0H         PUBLIC        P2
  D:00B0H         PUBLIC        P3
  D:00C0H         PUBLIC        P4
  D:00C8H         PUBLIC        P5
  C:5960H         PUBLIC        _Find_RF_EEPROM_Call
  D:00E8H         PUBLIC        P6
  D:00F8H         PUBLIC        P7
  C:508AH         PUBLIC        _delete_cancel_function
  C:755EH         PUBLIC        NoAck_I2c
  D:00A8H         PUBLIC        IE
  C:64B9H         PUBLIC        _ISendStr
  D:00B8H         PUBLIC        IP
  C:682CH         PUBLIC        _SendByte
  D:00D8H         PUBLIC        CCON
  C:6224H         PUBLIC        _Find_RF_EEPROM
  C:56E7H         PUBLIC        _Find_RF_EEPROM_Host
  C:495BH         PUBLIC        _register_alarm_function
BL51 BANKED LINKER/LOCATER V6.22                                                      04/11/2016  14:38:45  PAGE 131


  B:0021H.2       PUBLIC        ack
  C:61BDH         PUBLIC        _IRcvStr
  C:7412H         PUBLIC        _DelayMs
  C:4F5FH         PUBLIC        _delete_alarm_function
  D:0098H         PUBLIC        SCON
  D:0088H         PUBLIC        TCON
  C:51B5H         PUBLIC        _register_call_function
  C:53FFH         PUBLIC        _delete_call_function
  C:5D32H         SYMBOL        _?ix1000
  C:6F8EH         PUBLIC        RcvByte
  C:5D52H         SYMBOL        _?ix1001
  C:5D72H         SYMBOL        _?ix1002
  C:5D92H         SYMBOL        _?ix1003
  C:5DB2H         SYMBOL        _?ix1004
  X:05EFH         PUBLIC        EEPROM
  C:754DH         PUBLIC        Ack_I2c
  C:73E7H         PUBLIC        Start_I2c
  C:588DH         PUBLIC        _Find_RF_EEPROM_Cancel
  C:4D02H         PUBLIC        _register_host_function
  B:00B0H.4       PUBLIC        SDA
  B:00B0H.5       PUBLIC        SCL
  C:52DBH         PUBLIC        _delete_host_function
  C:7821H         PUBLIC        _DelayUs2x
  C:753CH         PUBLIC        Stop_I2c
  C:634BH         PUBLIC        Delete_all_data
  C:57BAH         PUBLIC        _Find_RF_EEPROM_Alarm
  D:00D0H         PUBLIC        PSW
  -------         PROC          _DELAYUS2X
  D:0007H         SYMBOL        t
  C:7821H         LINE#         9
  C:7821H         LINE#         10
  C:7821H         LINE#         11
  C:7823H         LINE#         12
  -------         ENDPROC       _DELAYUS2X
  -------         PROC          _DELAYMS
  D:0006H         SYMBOL        t
  C:7412H         LINE#         18
  C:7414H         LINE#         19
  C:7414H         LINE#         20
  C:741AH         LINE#         21
  C:741AH         LINE#         23
  C:741FH         LINE#         24
  C:7424H         LINE#         25
  C:7426H         LINE#         26
  -------         ENDPROC       _DELAYMS
  -------         PROC          START_I2C
  C:73E7H         LINE#         32
  C:73E7H         LINE#         33
  C:73E7H         LINE#         34
  C:73E9H         LINE#         35
  C:73EAH         LINE#         36
  C:73ECH         LINE#         37
  C:73EDH         LINE#         38
  C:73EEH         LINE#         39
  C:73EFH         LINE#         40
  C:73F0H         LINE#         41
  C:73F1H         LINE#         42
BL51 BANKED LINKER/LOCATER V6.22                                                      04/11/2016  14:38:45  PAGE 132


  C:73F3H         LINE#         43
  C:73F4H         LINE#         44
  C:73F5H         LINE#         45
  C:73F6H         LINE#         46
  C:73F7H         LINE#         47
  C:73F8H         LINE#         48
  C:73FAH         LINE#         49
  C:73FBH         LINE#         50
  C:73FCH         LINE#         51
  -------         ENDPROC       START_I2C
  -------         PROC          STOP_I2C
  C:753CH         LINE#         55
  C:753CH         LINE#         56
  C:753CH         LINE#         57
  C:753EH         LINE#         58
  C:753FH         LINE#         59
  C:7541H         LINE#         60
  C:7542H         LINE#         61
  C:7543H         LINE#         62
  C:7544H         LINE#         63
  C:7545H         LINE#         64
  C:7546H         LINE#         65
  C:7548H         LINE#         66
  C:7549H         LINE#         67
  C:754AH         LINE#         68
  C:754BH         LINE#         69
  C:754CH         LINE#         70
  -------         ENDPROC       STOP_I2C
  -------         PROC          _SENDBYTE
  D:0007H         SYMBOL        c
  -------         DO            
  D:0006H         SYMBOL        BitCnt
  -------         ENDDO         
  C:682CH         LINE#         79
  C:682CH         LINE#         80
  C:682CH         LINE#         82
  C:682EH         LINE#         83
  C:682EH         LINE#         84
  C:683BH         LINE#         85
  C:683FH         LINE#         87
  C:6841H         LINE#         88
  C:6842H         LINE#         89
  C:6844H         LINE#         90
  C:6845H         LINE#         91
  C:6846H         LINE#         92
  C:6847H         LINE#         93
  C:6848H         LINE#         94
  C:6849H         LINE#         95
  C:684BH         LINE#         96
  C:6850H         LINE#         97
  C:6851H         LINE#         98
  C:6852H         LINE#         99
  C:6854H         LINE#         100
  C:6855H         LINE#         101
  C:6856H         LINE#         102
  C:6858H         LINE#         103
  C:6859H         LINE#         104
BL51 BANKED LINKER/LOCATER V6.22                                                      04/11/2016  14:38:45  PAGE 133


  C:685AH         LINE#         105
  C:685BH         LINE#         106
  C:6862H         LINE#         107
  C:6864H         LINE#         108
  C:6866H         LINE#         109
  C:6867H         LINE#         110
  C:6868H         LINE#         111
  -------         ENDPROC       _SENDBYTE
  -------         PROC          RCVBYTE
  -------         DO            
  D:0007H         SYMBOL        retc
  D:0006H         SYMBOL        BitCnt
  -------         ENDDO         
  C:6F8EH         LINE#         119
  C:6F8EH         LINE#         120
  C:6F8EH         LINE#         123
  C:6F90H         LINE#         124
  C:6F92H         LINE#         125
  C:6F93H         LINE#         126
  C:6F93H         LINE#         127
  C:6F94H         LINE#         128
  C:6F96H         LINE#         129
  C:6F97H         LINE#         130
  C:6F98H         LINE#         131
  C:6F99H         LINE#         132
  C:6F9AH         LINE#         133
  C:6F9BH         LINE#         134
  C:6F9DH         LINE#         135
  C:6F9EH         LINE#         136
  C:6F9FH         LINE#         137
  C:6FA3H         LINE#         138
  C:6FA7H         LINE#         139
  C:6FA8H         LINE#         140
  C:6FA9H         LINE#         141
  C:6FAEH         LINE#         142
  C:6FB0H         LINE#         143
  C:6FB1H         LINE#         144
  C:6FB2H         LINE#         145
  C:6FB2H         LINE#         146
  -------         ENDPROC       RCVBYTE
  -------         PROC          ACK_I2C
  C:754DH         LINE#         154
  C:754DH         LINE#         155
  C:754DH         LINE#         156
  C:754FH         LINE#         157
  C:7550H         LINE#         158
  C:7551H         LINE#         159
  C:7552H         LINE#         160
  C:7554H         LINE#         161
  C:7555H         LINE#         162
  C:7556H         LINE#         163
  C:7557H         LINE#         164
  C:7558H         LINE#         165
  C:7559H         LINE#         166
  C:755BH         LINE#         167
  C:755CH         LINE#         168
  C:755DH         LINE#         169
BL51 BANKED LINKER/LOCATER V6.22                                                      04/11/2016  14:38:45  PAGE 134


  -------         ENDPROC       ACK_I2C
  -------         PROC          NOACK_I2C
  C:755EH         LINE#         176
  C:755EH         LINE#         177
  C:755EH         LINE#         178
  C:7560H         LINE#         179
  C:7561H         LINE#         180
  C:7562H         LINE#         181
  C:7563H         LINE#         182
  C:7565H         LINE#         183
  C:7566H         LINE#         184
  C:7567H         LINE#         185
  C:7568H         LINE#         186
  C:7569H         LINE#         187
  C:756AH         LINE#         188
  C:756CH         LINE#         189
  C:756DH         LINE#         190
  C:756EH         LINE#         191
  -------         ENDPROC       NOACK_I2C
  C:64B1H         SYMBOL        L?0199
  C:64B3H         SYMBOL        L?0200
  -------         PROC          L?0198
  -------         ENDPROC       L?0198
  C:64B1H         SYMBOL        L?0199
  C:64B3H         SYMBOL        L?0200
  -------         PROC          _ISENDSTR
  D:0007H         SYMBOL        sla
  D:0004H         SYMBOL        suba
  D:0001H         SYMBOL        s
  X:050FH         SYMBOL        no
  -------         DO            
  D:0005H         SYMBOL        i
  -------         ENDDO         
  C:64B9H         LINE#         201
  C:64B9H         LINE#         202
  C:64B9H         LINE#         204
  C:64BCH         LINE#         205
  C:64BFH         LINE#         206
  C:64C4H         LINE#         207
  C:64C9H         LINE#         208
  C:64CEH         LINE#         209
  C:64D3H         LINE#         210
  C:64D8H         LINE#         211
  C:64E4H         LINE#         212
  C:64E4H         LINE#         213
  C:64EBH         LINE#         214
  C:64F0H         LINE#         215
  C:64F7H         LINE#         216
  C:64FAH         LINE#         217
  C:64FDH         LINE#         218
  C:64FEH         LINE#         219
  -------         ENDPROC       _ISENDSTR
  C:61B5H         SYMBOL        L?0197
  -------         PROC          L?0196
  -------         ENDPROC       L?0196
  C:61B5H         SYMBOL        L?0197
  -------         PROC          _IRCVSTR
BL51 BANKED LINKER/LOCATER V6.22                                                      04/11/2016  14:38:45  PAGE 135


  X:0514H         SYMBOL        sla
  D:0004H         SYMBOL        suba
  D:0001H         SYMBOL        s
  X:051AH         SYMBOL        no
  -------         DO            
  D:0005H         SYMBOL        i
  -------         ENDDO         
  C:61BDH         LINE#         230
  C:61C2H         LINE#         231
  C:61C2H         LINE#         233
  C:61C5H         LINE#         234
  C:61CAH         LINE#         235
  C:61CFH         LINE#         236
  C:61D4H         LINE#         237
  C:61D9H         LINE#         238
  C:61DEH         LINE#         239
  C:61E3H         LINE#         240
  C:61E6H         LINE#         241
  C:61EFH         LINE#         242
  C:61F4H         LINE#         243
  C:6201H         LINE#         244
  C:6201H         LINE#         245
  C:6208H         LINE#         246
  C:620BH         LINE#         247
  C:6212H         LINE#         248
  C:6215H         LINE#         249
  C:621CH         LINE#         250
  C:621FH         LINE#         251
  C:6222H         LINE#         252
  C:6223H         LINE#         253
  -------         ENDPROC       _IRCVSTR
  -------         PROC          _REGISTER_CALL_FUNCTION
  X:04F8H         SYMBOL        pRF
  -------         DO            
  X:04FBH         SYMBOL        addr
  X:04FDH         SYMBOL        i
  X:04FFH         SYMBOL        RFtmp
  X:0507H         SYMBOL        tmp
  -------         ENDDO         
  C:51B5H         LINE#         255
  C:51C0H         LINE#         256
  C:51C0H         LINE#         260
  C:51C7H         LINE#         261
  C:51CFH         LINE#         263
  C:51D4H         LINE#         264
  C:51D4H         LINE#         265
  C:51DEH         LINE#         267
  C:51EDH         LINE#         268
  C:51EDH         LINE#         270
  C:51F3H         LINE#         271
  C:51F3H         LINE#         272
  C:5209H         LINE#         273
  C:5225H         LINE#         274
  C:5225H         LINE#         276
  C:524AH         LINE#         277
  C:524AH         LINE#         278
  C:525CH         LINE#         279
BL51 BANKED LINKER/LOCATER V6.22                                                      04/11/2016  14:38:45  PAGE 136


  C:5261H         LINE#         280
  C:5264H         LINE#         281
  C:5266H         LINE#         282
  C:5266H         LINE#         283
  C:5266H         LINE#         285
  C:5266H         LINE#         286
  C:527FH         LINE#         287
  C:527FH         LINE#         288
  C:528DH         LINE#         289
  C:52A7H         LINE#         290
  C:52BDH         LINE#         291
  C:52C7H         LINE#         292
  C:52C7H         LINE#         293
  C:52CEH         LINE#         294
  C:52D0H         LINE#         296
  C:52D0H         LINE#         297
  C:52D7H         LINE#         298
  C:52D9H         LINE#         299
  C:52D9H         LINE#         301
  C:52DAH         LINE#         302
  -------         ENDPROC       _REGISTER_CALL_FUNCTION
  -------         PROC          _REGISTER_HOST_FUNCTION
  X:04F8H         SYMBOL        pRF
  -------         DO            
  X:04FBH         SYMBOL        addr
  X:04FDH         SYMBOL        i
  X:04FFH         SYMBOL        RFtmp
  X:0507H         SYMBOL        tmp
  -------         ENDDO         
  C:4D02H         LINE#         305
  C:4D0DH         LINE#         306
  C:4D0DH         LINE#         310
  C:4D14H         LINE#         311
  C:4D1EH         LINE#         313
  C:4D23H         LINE#         314
  C:4D23H         LINE#         315
  C:4D2DH         LINE#         318
  C:4D3CH         LINE#         319
  C:4D3CH         LINE#         321
  C:4D42H         LINE#         322
  C:4D42H         LINE#         323
  C:4D58H         LINE#         324
  C:4D74H         LINE#         325
  C:4D74H         LINE#         327
  C:4D99H         LINE#         328
  C:4D99H         LINE#         329
  C:4DABH         LINE#         330
  C:4DB0H         LINE#         331
  C:4DB6H         LINE#         332
  C:4DB8H         LINE#         333
  C:4DB8H         LINE#         334
  C:4DB8H         LINE#         336
  C:4DB8H         LINE#         337
  C:4DD1H         LINE#         338
  C:4DD1H         LINE#         339
  C:4DDFH         LINE#         340
  C:4DFFH         LINE#         341
BL51 BANKED LINKER/LOCATER V6.22                                                      04/11/2016  14:38:45  PAGE 137


  C:4E15H         LINE#         343
  C:4E1FH         LINE#         344
  C:4E1FH         LINE#         345
  C:4E26H         LINE#         346
  C:4E28H         LINE#         348
  C:4E28H         LINE#         349
  C:4E2FH         LINE#         350
  C:4E31H         LINE#         351
  C:4E31H         LINE#         352
  C:4E32H         LINE#         353
  -------         ENDPROC       _REGISTER_HOST_FUNCTION
  -------         PROC          _REGISTER_ALARM_FUNCTION
  X:04F8H         SYMBOL        pRF
  -------         DO            
  X:04FBH         SYMBOL        addr
  X:04FDH         SYMBOL        i
  X:04FFH         SYMBOL        RFtmp
  X:0507H         SYMBOL        tmp
  -------         ENDDO         
  C:495BH         LINE#         355
  C:4966H         LINE#         356
  C:4966H         LINE#         360
  C:496DH         LINE#         361
  C:4977H         LINE#         363
  C:497CH         LINE#         364
  C:497CH         LINE#         365
  C:498DH         LINE#         368
  C:499CH         LINE#         369
  C:499CH         LINE#         371
  C:49A2H         LINE#         372
  C:49A2H         LINE#         373
  C:49B8H         LINE#         374
  C:49D4H         LINE#         375
  C:49D4H         LINE#         377
  C:49F9H         LINE#         378
  C:49F9H         LINE#         379
  C:4A0BH         LINE#         380
  C:4A10H         LINE#         381
  C:4A16H         LINE#         382
  C:4A18H         LINE#         383
  C:4A18H         LINE#         384
  C:4A18H         LINE#         386
  C:4A18H         LINE#         387
  C:4A31H         LINE#         388
  C:4A31H         LINE#         389
  C:4A3FH         LINE#         390
  C:4A5FH         LINE#         391
  C:4A75H         LINE#         393
  C:4A7FH         LINE#         394
  C:4A7FH         LINE#         395
  C:4A86H         LINE#         396
  C:4A88H         LINE#         398
  C:4A88H         LINE#         399
  C:4A8FH         LINE#         400
  C:4A91H         LINE#         401
  C:4A91H         LINE#         402
  C:4A92H         LINE#         403
BL51 BANKED LINKER/LOCATER V6.22                                                      04/11/2016  14:38:45  PAGE 138


  -------         ENDPROC       _REGISTER_ALARM_FUNCTION
  -------         PROC          _REGISTER_CANCEL_FUNCTION
  X:04F8H         SYMBOL        pRF
  -------         DO            
  X:04FBH         SYMBOL        addr
  X:04FDH         SYMBOL        i
  X:04FFH         SYMBOL        RFtmp
  X:0507H         SYMBOL        tmp
  -------         ENDDO         
  C:4A93H         LINE#         405
  C:4A9EH         LINE#         406
  C:4A9EH         LINE#         410
  C:4AA5H         LINE#         411
  C:4AAFH         LINE#         413
  C:4AB4H         LINE#         414
  C:4AB4H         LINE#         415
  C:4AC5H         LINE#         418
  C:4AD4H         LINE#         419
  C:4AD4H         LINE#         421
  C:4ADAH         LINE#         422
  C:4ADAH         LINE#         423
  C:4AF0H         LINE#         424
  C:4B0CH         LINE#         425
  C:4B0CH         LINE#         427
  C:4B31H         LINE#         428
  C:4B31H         LINE#         429
  C:4B43H         LINE#         430
  C:4B48H         LINE#         431
  C:4B4EH         LINE#         432
  C:4B50H         LINE#         433
  C:4B50H         LINE#         434
  C:4B50H         LINE#         436
  C:4B50H         LINE#         437
  C:4B69H         LINE#         438
  C:4B69H         LINE#         439
  C:4B77H         LINE#         440
  C:4B97H         LINE#         441
  C:4BADH         LINE#         443
  C:4BB7H         LINE#         444
  C:4BB7H         LINE#         445
  C:4BBEH         LINE#         446
  C:4BC0H         LINE#         448
  C:4BC0H         LINE#         449
  C:4BC7H         LINE#         450
  C:4BC9H         LINE#         451
  C:4BC9H         LINE#         452
  C:4BCAH         LINE#         453
  -------         ENDPROC       _REGISTER_CANCEL_FUNCTION
  -------         PROC          _DELETE_CALL_FUNCTION
  X:04D7H         SYMBOL        buf
  -------         DO            
  X:04DAH         SYMBOL        RFtmp
  X:04E2H         SYMBOL        addr
  X:04E4H         SYMBOL        i
  X:04E6H         SYMBOL        dofly
  -------         ENDDO         
  C:53FFH         LINE#         455
BL51 BANKED LINKER/LOCATER V6.22                                                      04/11/2016  14:38:45  PAGE 139


  C:540AH         LINE#         456
  C:540AH         LINE#         458
  C:5413H         LINE#         460
  C:5425H         LINE#         461
  C:543EH         LINE#         462
  C:543EH         LINE#         463
  C:5457H         LINE#         464
  C:5457H         LINE#         465
  C:5479H         LINE#         466
  C:547CH         LINE#         467
  C:548CH         LINE#         469
  C:548CH         LINE#         471
  C:548CH         LINE#         472
  C:5493H         LINE#         473
  C:5493H         LINE#         474
  C:54A4H         LINE#         476
  C:54B0H         LINE#         477
  C:54B0H         LINE#         478
  C:54D2H         LINE#         479
  C:54D2H         LINE#         480
  C:54E0H         LINE#         481
  C:54EAH         LINE#         483
  C:54ECH         LINE#         484
  C:54ECH         LINE#         485
  C:54ECH         LINE#         486
  C:54FAH         LINE#         487
  C:5511H         LINE#         488
  C:5511H         LINE#         489
  C:5512H         LINE#         490
  -------         ENDPROC       _DELETE_CALL_FUNCTION
  -------         PROC          _DELETE_HOST_FUNCTION
  X:04D7H         SYMBOL        buf
  -------         DO            
  X:04DAH         SYMBOL        RFtmp
  X:04E2H         SYMBOL        addr
  X:04E4H         SYMBOL        i
  X:04E6H         SYMBOL        dofly
  -------         ENDDO         
  C:52DBH         LINE#         492
  C:52E6H         LINE#         493
  C:52E6H         LINE#         495
  C:52F0H         LINE#         497
  C:5302H         LINE#         498
  C:531BH         LINE#         499
  C:531BH         LINE#         500
  C:5334H         LINE#         501
  C:5334H         LINE#         502
  C:535CH         LINE#         503
  C:535FH         LINE#         504
  C:536FH         LINE#         506
  C:536FH         LINE#         508
  C:536FH         LINE#         509
  C:5376H         LINE#         510
  C:5376H         LINE#         511
  C:5387H         LINE#         513
  C:5393H         LINE#         514
  C:5393H         LINE#         515
BL51 BANKED LINKER/LOCATER V6.22                                                      04/11/2016  14:38:45  PAGE 140


  C:53B5H         LINE#         516
  C:53B5H         LINE#         517
  C:53C3H         LINE#         518
  C:53CDH         LINE#         520
  C:53CFH         LINE#         521
  C:53CFH         LINE#         522
  C:53CFH         LINE#         523
  C:53DDH         LINE#         524
  C:53FDH         LINE#         525
  C:53FDH         LINE#         526
  C:53FEH         LINE#         527
  -------         ENDPROC       _DELETE_HOST_FUNCTION
  -------         PROC          _DELETE_ALARM_FUNCTION
  X:04D7H         SYMBOL        buf
  -------         DO            
  X:04DAH         SYMBOL        RFtmp
  X:04E2H         SYMBOL        addr
  X:04E4H         SYMBOL        i
  X:04E6H         SYMBOL        dofly
  -------         ENDDO         
  C:4F5FH         LINE#         529
  C:4F6AH         LINE#         530
  C:4F6AH         LINE#         532
  C:4F74H         LINE#         534
  C:4F86H         LINE#         535
  C:4F9FH         LINE#         536
  C:4F9FH         LINE#         537
  C:4FB8H         LINE#         538
  C:4FB8H         LINE#         539
  C:4FE0H         LINE#         540
  C:4FE3H         LINE#         541
  C:4FF3H         LINE#         543
  C:4FF3H         LINE#         545
  C:4FF3H         LINE#         546
  C:4FFAH         LINE#         547
  C:4FFAH         LINE#         548
  C:500BH         LINE#         550
  C:5017H         LINE#         551
  C:5017H         LINE#         552
  C:5039H         LINE#         553
  C:5039H         LINE#         554
  C:5047H         LINE#         555
  C:5058H         LINE#         557
  C:505AH         LINE#         558
  C:505AH         LINE#         559
  C:505AH         LINE#         560
  C:5068H         LINE#         561
  C:5088H         LINE#         562
  C:5088H         LINE#         563
  C:5089H         LINE#         564
  -------         ENDPROC       _DELETE_ALARM_FUNCTION
  -------         PROC          _DELETE_CANCEL_FUNCTION
  X:04D7H         SYMBOL        buf
  -------         DO            
  X:04DAH         SYMBOL        RFtmp
  X:04E2H         SYMBOL        addr
  X:04E4H         SYMBOL        i
BL51 BANKED LINKER/LOCATER V6.22                                                      04/11/2016  14:38:45  PAGE 141


  X:04E6H         SYMBOL        dofly
  -------         ENDDO         
  C:508AH         LINE#         566
  C:5095H         LINE#         567
  C:5095H         LINE#         569
  C:509FH         LINE#         571
  C:50B1H         LINE#         572
  C:50CAH         LINE#         573
  C:50CAH         LINE#         574
  C:50E3H         LINE#         575
  C:50E3H         LINE#         576
  C:510BH         LINE#         577
  C:510EH         LINE#         578
  C:511EH         LINE#         580
  C:511EH         LINE#         582
  C:511EH         LINE#         583
  C:5125H         LINE#         584
  C:5125H         LINE#         585
  C:5136H         LINE#         587
  C:5142H         LINE#         588
  C:5142H         LINE#         589
  C:5164H         LINE#         590
  C:5164H         LINE#         591
  C:5172H         LINE#         592
  C:5183H         LINE#         594
  C:5185H         LINE#         595
  C:5185H         LINE#         596
  C:5185H         LINE#         597
  C:5193H         LINE#         598
  C:51B3H         LINE#         599
  C:51B3H         LINE#         600
  C:51B4H         LINE#         601
  -------         ENDPROC       _DELETE_CANCEL_FUNCTION
  -------         PROC          DELETE_ALL_DATA
  -------         DO            
  X:04D7H         SYMBOL        dofly
  X:04F7H         SYMBOL        k
  -------         ENDDO         
  C:634BH         LINE#         603
  C:634BH         LINE#         604
  C:634BH         LINE#         633
  C:635EH         LINE#         635
  C:6375H         LINE#         636
  C:6375H         LINE#         637
  C:6393H         LINE#         638
  C:6396H         LINE#         639
  C:63A6H         LINE#         640
  -------         ENDPROC       DELETE_ALL_DATA
  -------         PROC          _FIND_RF_EEPROM_CALL
  X:04FFH         SYMBOL        p
  X:0502H         SYMBOL        dat
  -------         DO            
  X:0506H         SYMBOL        RFtmp
  X:050EH         SYMBOL        addr
  X:0510H         SYMBOL        i
  -------         ENDDO         
  C:5960H         LINE#         643
BL51 BANKED LINKER/LOCATER V6.22                                                      04/11/2016  14:38:45  PAGE 142


  C:596FH         LINE#         644
  C:596FH         LINE#         648
  C:5978H         LINE#         650
  C:597DH         LINE#         651
  C:597DH         LINE#         652
  C:598EH         LINE#         655
  C:5994H         LINE#         656
  C:5994H         LINE#         657
  C:59AAH         LINE#         658
  C:59C0H         LINE#         659
  C:59C0H         LINE#         661
  C:59E2H         LINE#         662
  C:59E2H         LINE#         663
  C:59FEH         LINE#         664
  C:5A01H         LINE#         665
  C:5A01H         LINE#         666
  C:5A0FH         LINE#         667
  C:5A29H         LINE#         668
  C:5A2BH         LINE#         669
  -------         ENDPROC       _FIND_RF_EEPROM_CALL
  -------         PROC          _FIND_RF_EEPROM_HOST
  X:0501H         SYMBOL        p
  X:0504H         SYMBOL        dat
  -------         DO            
  X:0508H         SYMBOL        RFtmp
  X:0510H         SYMBOL        addr
  X:0512H         SYMBOL        i
  -------         ENDDO         
  C:56E7H         LINE#         671
  C:56F6H         LINE#         672
  C:56F6H         LINE#         676
  C:5700H         LINE#         678
  C:5705H         LINE#         679
  C:5705H         LINE#         680
  C:5716H         LINE#         683
  C:571CH         LINE#         684
  C:571CH         LINE#         685
  C:5732H         LINE#         686
  C:5748H         LINE#         687
  C:5748H         LINE#         689
  C:576AH         LINE#         690
  C:576AH         LINE#         691
  C:5786H         LINE#         692
  C:5789H         LINE#         693
  C:5789H         LINE#         694
  C:5797H         LINE#         695
  C:57B7H         LINE#         696
  C:57B9H         LINE#         697
  -------         ENDPROC       _FIND_RF_EEPROM_HOST
  -------         PROC          _FIND_RF_EEPROM_ALARM
  X:04FFH         SYMBOL        p
  X:0502H         SYMBOL        dat
  -------         DO            
  X:0506H         SYMBOL        RFtmp
  X:050EH         SYMBOL        addr
  X:0510H         SYMBOL        i
  -------         ENDDO         
BL51 BANKED LINKER/LOCATER V6.22                                                      04/11/2016  14:38:45  PAGE 143


  C:57BAH         LINE#         699
  C:57C9H         LINE#         700
  C:57C9H         LINE#         704
  C:57D3H         LINE#         706
  C:57D8H         LINE#         707
  C:57D8H         LINE#         708
  C:57E9H         LINE#         711
  C:57EFH         LINE#         712
  C:57EFH         LINE#         713
  C:5805H         LINE#         714
  C:581BH         LINE#         715
  C:581BH         LINE#         717
  C:583DH         LINE#         718
  C:583DH         LINE#         719
  C:5859H         LINE#         720
  C:585CH         LINE#         721
  C:585CH         LINE#         722
  C:586AH         LINE#         723
  C:588AH         LINE#         724
  C:588CH         LINE#         725
  -------         ENDPROC       _FIND_RF_EEPROM_ALARM
  -------         PROC          _FIND_RF_EEPROM_CANCEL
  X:04FFH         SYMBOL        p
  X:0502H         SYMBOL        dat
  -------         DO            
  X:0506H         SYMBOL        RFtmp
  X:050EH         SYMBOL        addr
  X:0510H         SYMBOL        i
  -------         ENDDO         
  C:588DH         LINE#         727
  C:589CH         LINE#         728
  C:589CH         LINE#         732
  C:58A6H         LINE#         734
  C:58ABH         LINE#         735
  C:58ABH         LINE#         736
  C:58BCH         LINE#         739
  C:58C2H         LINE#         740
  C:58C2H         LINE#         741
  C:58D8H         LINE#         742
  C:58EEH         LINE#         743
  C:58EEH         LINE#         745
  C:5910H         LINE#         746
  C:5910H         LINE#         747
  C:592CH         LINE#         748
  C:592FH         LINE#         749
  C:592FH         LINE#         750
  C:593DH         LINE#         751
  C:595DH         LINE#         752
  C:595FH         LINE#         753
  -------         ENDPROC       _FIND_RF_EEPROM_CANCEL
  -------         PROC          _FIND_RF_EEPROM
  X:04F8H         SYMBOL        p
  X:04FBH         SYMBOL        dat
  C:6224H         LINE#         755
  C:6235H         LINE#         756
  C:6235H         LINE#         757
  C:6247H         LINE#         758
BL51 BANKED LINKER/LOCATER V6.22                                                      04/11/2016  14:38:45  PAGE 144


  C:6247H         LINE#         759
  C:624AH         LINE#         760
  C:624AH         LINE#         761
  C:6267H         LINE#         762
  C:6267H         LINE#         763
  C:626AH         LINE#         764
  C:626AH         LINE#         765
  C:6287H         LINE#         766
  C:6287H         LINE#         767
  C:628AH         LINE#         768
  C:628AH         LINE#         770
  C:628AH         LINE#         771
  C:628CH         LINE#         772
  C:628CH         LINE#         773
  -------         ENDPROC       _FIND_RF_EEPROM
  -------         ENDMOD        AT24C256

  -------         MODULE        GD5800
  C:0000H         SYMBOL        _ICE_DUMMY_
  D:0080H         PUBLIC        P0
  D:0090H         PUBLIC        P1
  D:00A0H         PUBLIC        P2
  D:00B0H         PUBLIC        P3
  D:00C0H         PUBLIC        P4
  D:00C8H         PUBLIC        P5
  D:00E8H         PUBLIC        P6
  D:00F8H         PUBLIC        P7
  C:744FH         PUBLIC        GD5800_stop_music
  C:6A93H         PUBLIC        _GD5800_select_chapter
  D:00A8H         PUBLIC        IE
  D:00B8H         PUBLIC        IP
  D:00D8H         PUBLIC        CCON
  C:738BH         PUBLIC        GD5800_initialization
  C:46E8H         PUBLIC        _submenuf6_1_voiceselect
  C:3894H         PUBLIC        _submenuf6_1
  D:0098H         PUBLIC        SCON
  D:0088H         PUBLIC        TCON
  C:68DFH         PUBLIC        _GD5800_select_chapter_new
  C:7179H         PUBLIC        _GD5800_sound_volume
  C:7463H         PUBLIC        GD5800_play_music
  D:00D0H         PUBLIC        PSW
  -------         PROC          GD5800_INITIALIZATION
  C:738BH         LINE#         6
  C:738BH         LINE#         7
  C:738BH         LINE#         9
  C:7390H         LINE#         10
  C:7395H         LINE#         11
  C:739AH         LINE#         12
  C:739FH         LINE#         13
  -------         ENDPROC       GD5800_INITIALIZATION
  -------         PROC          L?0083
  -------         ENDPROC       L?0083
  -------         PROC          _GD5800_SELECT_CHAPTER
  X:051BH         SYMBOL        chapter_number
  C:6A93H         LINE#         17
  C:6A9BH         LINE#         18
  C:6A9BH         LINE#         19
BL51 BANKED LINKER/LOCATER V6.22                                                      04/11/2016  14:38:45  PAGE 145


  C:6AA0H         LINE#         20
  C:6AA5H         LINE#         21
  C:6AAAH         LINE#         22
  C:6AB2H         LINE#         23
  C:6ABBH         LINE#         24
  -------         ENDPROC       _GD5800_SELECT_CHAPTER
  -------         PROC          _GD5800_SOUND_VOLUME
  X:04D1H         SYMBOL        volume
  C:7179H         LINE#         28
  C:717EH         LINE#         29
  C:717EH         LINE#         30
  C:7183H         LINE#         31
  C:7188H         LINE#         32
  C:718DH         LINE#         33
  C:7195H         LINE#         34
  -------         ENDPROC       _GD5800_SOUND_VOLUME
  -------         PROC          GD5800_STOP_MUSIC
  C:744FH         LINE#         38
  C:744FH         LINE#         39
  C:744FH         LINE#         40
  C:7454H         LINE#         41
  C:7459H         LINE#         42
  C:745EH         LINE#         43
  -------         ENDPROC       GD5800_STOP_MUSIC
  -------         PROC          GD5800_PLAY_MUSIC
  C:7463H         LINE#         46
  C:7463H         LINE#         47
  C:7463H         LINE#         48
  C:7468H         LINE#         49
  C:746DH         LINE#         50
  C:7472H         LINE#         51
  -------         ENDPROC       GD5800_PLAY_MUSIC
  -------         PROC          L?0082
  -------         ENDPROC       L?0082
  -------         PROC          _SUBMENUF6_1_VOICESELECT
  X:0517H         SYMBOL        report_mode
  D:0001H         SYMBOL        report_number
  -------         DO            
  X:0518H         SYMBOL        number
  -------         ENDDO         
  C:46E8H         LINE#         54
  C:46EDH         LINE#         55
  C:46EDH         LINE#         57
  C:46F6H         LINE#         58
  C:46FFH         LINE#         59
  C:46FFH         LINE#         60
  C:4707H         LINE#         61
  C:4707H         LINE#         62
  C:471CH         LINE#         63
  C:471EH         LINE#         65
  C:471EH         LINE#         66
  C:4731H         LINE#         67
  C:4731H         LINE#         68
  C:4734H         LINE#         69
  C:473BH         LINE#         70
  C:4742H         LINE#         71
  C:4742H         LINE#         72
BL51 BANKED LINKER/LOCATER V6.22                                                      04/11/2016  14:38:45  PAGE 146


  C:4742H         LINE#         74
  C:474BH         LINE#         75
  C:474BH         LINE#         76
  C:475CH         LINE#         77
  C:475EH         LINE#         79
  C:475EH         LINE#         80
  C:4771H         LINE#         81
  C:4771H         LINE#         82
  C:4775H         LINE#         83
  C:4775H         LINE#         84
  C:477DH         LINE#         85
  C:477DH         LINE#         86
  C:477FH         LINE#         87
  C:4781H         LINE#         89
  C:4781H         LINE#         90
  C:4797H         LINE#         91
  C:4797H         LINE#         92
  C:4799H         LINE#         94
  C:4799H         LINE#         95
  C:47B3H         LINE#         96
  C:47B3H         LINE#         97
  C:47B3H         LINE#         98
  C:47B3H         LINE#         100
  C:47BCH         LINE#         101
  C:47BCH         LINE#         102
  C:47CBH         LINE#         103
  C:47CDH         LINE#         105
  C:47CDH         LINE#         106
  C:47EBH         LINE#         107
  C:47EBH         LINE#         108
  C:47F2H         LINE#         110
  C:47F2H         LINE#         111
  C:47F2H         LINE#         112
  C:47F4H         LINE#         115
  C:47F4H         LINE#         116
  C:4806H         LINE#         117
  C:4806H         LINE#         118
  C:4806H         LINE#         119
  C:480AH         LINE#         120
  C:480CH         LINE#         121
  C:480CH         LINE#         122
  C:4810H         LINE#         123
  C:4812H         LINE#         124
  C:4812H         LINE#         125
  C:4816H         LINE#         126
  C:4818H         LINE#         127
  C:4818H         LINE#         128
  C:481FH         LINE#         129
  C:481FH         LINE#         130
  C:481FH         LINE#         131
  C:481FH         LINE#         132
  C:481FH         LINE#         133
  -------         ENDPROC       _SUBMENUF6_1_VOICESELECT
  -------         PROC          _SUBMENUF6_1
  X:0506H         SYMBOL        report_mode
  X:0507H         SYMBOL        report_number
  X:050AH         SYMBOL        call_type
BL51 BANKED LINKER/LOCATER V6.22                                                      04/11/2016  14:38:45  PAGE 147


  X:050CH         SYMBOL        key_value
  -------         DO            
  X:050DH         SYMBOL        mode
  X:050FH         SYMBOL        number
  X:0512H         SYMBOL        type
  X:0514H         SYMBOL        key
  X:0515H         SYMBOL        Two_Menu_F7_E1_temp
  X:0516H         SYMBOL        Two_Menu_F6_E7_temp
  -------         ENDDO         
  C:3894H         LINE#         154
  C:38A2H         LINE#         155
  C:38A2H         LINE#         160
  C:38A7H         LINE#         161
  C:38A9H         LINE#         162
  C:38B1H         LINE#         163
  C:38B9H         LINE#         164
  C:38C8H         LINE#         165
  C:38DDH         LINE#         166
  C:38ECH         LINE#         167
  C:38F4H         LINE#         168
  C:3900H         LINE#         169
  C:3900H         LINE#         170
  C:3905H         LINE#         172
  C:390CH         LINE#         173
  C:390CH         LINE#         174
  C:3913H         LINE#         175
  C:3913H         LINE#         177
  C:392BH         LINE#         178
  C:392BH         LINE#         179
  C:3932H         LINE#         180
  C:3932H         LINE#         183
  C:393DH         LINE#         184
  C:393DH         LINE#         186
  C:3954H         LINE#         187
  C:3954H         LINE#         188
  C:395CH         LINE#         189
  C:395CH         LINE#         190
  C:395FH         LINE#         191
  C:3961H         LINE#         193
  C:3961H         LINE#         194
  C:3974H         LINE#         195
  C:3974H         LINE#         196
  C:3977H         LINE#         197
  C:3979H         LINE#         198
  C:3979H         LINE#         199
  C:3979H         LINE#         201
  C:397BH         LINE#         202
  C:3998H         LINE#         203
  C:3998H         LINE#         204
  C:399FH         LINE#         205
  C:39A1H         LINE#         207
  C:39A1H         LINE#         208
  C:39C3H         LINE#         209
  C:39C3H         LINE#         210
  C:39C9H         LINE#         211
  C:39CFH         LINE#         212
  C:39D5H         LINE#         213
BL51 BANKED LINKER/LOCATER V6.22                                                      04/11/2016  14:38:45  PAGE 148


  C:39DBH         LINE#         214
  C:39E2H         LINE#         215
  C:39E2H         LINE#         216
  C:39E2H         LINE#         217
  C:39E2H         LINE#         218
  C:39E2H         LINE#         219
  C:39E5H         LINE#         221
  C:39F5H         LINE#         222
  C:39F5H         LINE#         223
  C:39FCH         LINE#         224
  C:39FCH         LINE#         226
  C:3A03H         LINE#         227
  C:3A03H         LINE#         229
  C:3A05H         LINE#         230
  C:3A07H         LINE#         231
  C:3A1AH         LINE#         232
  C:3A1AH         LINE#         233
  C:3A2AH         LINE#         234
  C:3A2AH         LINE#         235
  C:3A30H         LINE#         236
  C:3A32H         LINE#         237
  C:3A3EH         LINE#         238
  C:3A3EH         LINE#         239
  C:3A41H         LINE#         240
  C:3A41H         LINE#         241
  C:3A41H         LINE#         242
  C:3A43H         LINE#         244
  C:3A43H         LINE#         245
  C:3A56H         LINE#         246
  C:3A56H         LINE#         247
  C:3A5DH         LINE#         248
  C:3A5DH         LINE#         250
  C:3A5DH         LINE#         251
  C:3A60H         LINE#         252
  C:3A60H         LINE#         253
  C:3A60H         LINE#         255
  -------         ENDPROC       _SUBMENUF6_1
  -------         PROC          _GD5800_SELECT_CHAPTER_NEW
  X:0509H         SYMBOL        chapter_number
  -------         DO            
  C:68E7H         SYMBOL        tofun94
  -------         ENDDO         
  C:68DFH         LINE#         452
  C:68E7H         LINE#         453
  C:68E7H         LINE#         454
  C:68E7H         LINE#         455
  C:68EDH         LINE#         456
  C:68F2H         LINE#         457
  C:68F6H         LINE#         458
  C:6901H         LINE#         459
  C:6904H         LINE#         460
  C:6907H         LINE#         461
  C:690AH         LINE#         462
  C:690DH         LINE#         463
  C:6914H         LINE#         464
  C:6914H         LINE#         465
  -------         ENDPROC       _GD5800_SELECT_CHAPTER_NEW
BL51 BANKED LINKER/LOCATER V6.22                                                      04/11/2016  14:38:45  PAGE 149


  -------         ENDMOD        GD5800

  -------         MODULE        COM
  C:0000H         SYMBOL        _ICE_DUMMY_
  D:0080H         PUBLIC        P0
  D:0090H         PUBLIC        P1
  D:00A0H         PUBLIC        P2
  D:00B0H         PUBLIC        P3
  D:00C0H         PUBLIC        P4
  D:00C8H         PUBLIC        P5
  D:00E8H         PUBLIC        P6
  D:00F8H         PUBLIC        P7
  D:00A8H         PUBLIC        IE
  D:00B8H         PUBLIC        IP
  D:00D8H         PUBLIC        CCON
  D:0098H         PUBLIC        SCON
  D:0088H         PUBLIC        TCON
  C:3A61H         PUBLIC        _mcu_to_computer
  D:00D0H         PUBLIC        PSW
  -------         PROC          _MCU_TO_COMPUTER
  X:04F8H         SYMBOL        call_type
  X:04F9H         SYMBOL        number
  X:04FCH         SYMBOL        key_type
  -------         DO            
  X:04FDH         SYMBOL        temp1
  X:04FEH         SYMBOL        temp2
  X:04FFH         SYMBOL        key
  X:0500H         SYMBOL        sec
  X:0501H         SYMBOL        hour
  X:0502H         SYMBOL        min
  -------         ENDDO         
  C:3A61H         LINE#         5
  C:3A6FH         LINE#         6
  C:3A6FH         LINE#         7
  C:3A78H         LINE#         9
  C:3A7EH         LINE#         10
  C:3A81H         LINE#         12
  C:3A86H         LINE#         13
  C:3A8BH         LINE#         14
  C:3A90H         LINE#         15
  C:3A95H         LINE#         16
  C:3A9AH         LINE#         17
  C:3AA2H         LINE#         18
  C:3AA7H         LINE#         20
  C:3AC8H         LINE#         21
  C:3ADDH         LINE#         22
  C:3AE0H         LINE#         23
  C:3AE8H         LINE#         25
  C:3B30H         LINE#         26
  C:3B30H         LINE#         27
  C:3B30H         LINE#         28
  C:3B35H         LINE#         29
  C:3B35H         LINE#         30
  C:3B37H         LINE#         31
  C:3B37H         LINE#         32
  C:3B3CH         LINE#         33
  C:3B3CH         LINE#         34
BL51 BANKED LINKER/LOCATER V6.22                                                      04/11/2016  14:38:45  PAGE 150


  C:3B3EH         LINE#         35
  C:3B3EH         LINE#         36
  C:3B43H         LINE#         37
  C:3B43H         LINE#         38
  C:3B45H         LINE#         39
  C:3B45H         LINE#         40
  C:3B4AH         LINE#         41
  C:3B4AH         LINE#         42
  C:3B4CH         LINE#         43
  C:3B4CH         LINE#         44
  C:3B51H         LINE#         45
  C:3B51H         LINE#         46
  C:3B53H         LINE#         47
  C:3B53H         LINE#         48
  C:3B58H         LINE#         49
  C:3B58H         LINE#         50
  C:3B5AH         LINE#         51
  C:3B5AH         LINE#         52
  C:3B5FH         LINE#         53
  C:3B5FH         LINE#         54
  C:3B61H         LINE#         55
  C:3B61H         LINE#         56
  C:3B66H         LINE#         57
  C:3B66H         LINE#         58
  C:3B68H         LINE#         59
  C:3B68H         LINE#         60
  C:3B6DH         LINE#         61
  C:3B6DH         LINE#         62
  C:3B6FH         LINE#         63
  C:3B6FH         LINE#         64
  C:3B74H         LINE#         65
  C:3B74H         LINE#         66
  C:3B76H         LINE#         67
  C:3B76H         LINE#         68
  C:3B7BH         LINE#         69
  C:3B7BH         LINE#         70
  C:3B7DH         LINE#         71
  C:3B7DH         LINE#         72
  C:3B82H         LINE#         73
  C:3B82H         LINE#         74
  C:3B84H         LINE#         75
  C:3B84H         LINE#         76
  C:3B89H         LINE#         77
  C:3B89H         LINE#         78
  C:3B8BH         LINE#         79
  C:3B8BH         LINE#         80
  C:3B90H         LINE#         81
  C:3B90H         LINE#         82
  C:3B92H         LINE#         83
  C:3B92H         LINE#         84
  C:3B97H         LINE#         85
  C:3B97H         LINE#         86
  C:3B99H         LINE#         87
  C:3B99H         LINE#         88
  C:3B9EH         LINE#         89
  C:3BA2H         LINE#         90
  C:3BA2H         LINE#         91
BL51 BANKED LINKER/LOCATER V6.22                                                      04/11/2016  14:38:45  PAGE 151


  C:3BA2H         LINE#         96
  C:3BA7H         LINE#         97
  C:3BACH         LINE#         99
  C:3BC1H         LINE#         100
  C:3BD5H         LINE#         101
  C:3BE9H         LINE#         103
  C:3BEEH         LINE#         104
  C:3BF6H         LINE#         105
  C:3BFEH         LINE#         107
  C:3C26H         LINE#         110
  -------         ENDPROC       _MCU_TO_COMPUTER
  -------         ENDMOD        COM

  -------         MODULE        ?C?COPY
  C:2307H         PUBLIC        ?C?COPY
  -------         ENDMOD        ?C?COPY

  -------         MODULE        ?C?CLDPTR
  C:232DH         PUBLIC        ?C?CLDPTR
  -------         ENDMOD        ?C?CLDPTR

  -------         MODULE        ?C?CLDOPTR
  C:2346H         PUBLIC        ?C?CLDOPTR
  -------         ENDMOD        ?C?CLDOPTR

  -------         MODULE        ?C?CSTPTR
  C:2373H         PUBLIC        ?C?CSTPTR
  -------         ENDMOD        ?C?CSTPTR

  -------         MODULE        ?C?CSTOPTR
  C:2385H         PUBLIC        ?C?CSTOPTR
  -------         ENDMOD        ?C?CSTOPTR

  -------         MODULE        ?C?IMUL
  C:23A7H         PUBLIC        ?C?IMUL
  -------         ENDMOD        ?C?IMUL

  -------         MODULE        ?C?UIDIV
  C:23B9H         PUBLIC        ?C?UIDIV
  -------         ENDMOD        ?C?UIDIV

  -------         MODULE        ?C?ILDIX
  C:240EH         PUBLIC        ?C?ILDIX
  -------         ENDMOD        ?C?ILDIX

  -------         MODULE        ?C?ULCMP
  C:2424H         PUBLIC        ?C?ULCMP
  -------         ENDMOD        ?C?ULCMP

  -------         MODULE        ?C?LSHL
  C:2435H         PUBLIC        ?C?LSHL
  -------         ENDMOD        ?C?LSHL

  -------         MODULE        ?C?LLDPTR
  C:2448H         PUBLIC        ?C?LLDPTR
  -------         ENDMOD        ?C?LLDPTR

BL51 BANKED LINKER/LOCATER V6.22                                                      04/11/2016  14:38:45  PAGE 152


  -------         MODULE        ?C?LLDOPTR
  C:2468H         PUBLIC        ?C?LLDOPTR
  -------         ENDMOD        ?C?LLDOPTR

  -------         MODULE        ?C?LSTPTR
  C:2498H         PUBLIC        ?C?LSTPTR
  -------         ENDMOD        ?C?LSTPTR

  -------         MODULE        ?C?LSTXDATA
  C:24B2H         PUBLIC        ?C?LSTXDATA
  -------         ENDMOD        ?C?LSTXDATA

  -------         MODULE        ?C?CCASE
  C:24BEH         PUBLIC        ?C?CCASE
  -------         ENDMOD        ?C?CCASE

  -------         MODULE        ?C?ICALL
  C:24E4H         PUBLIC        ?C?ICALL
  C:24E8H         PUBLIC        ?C?ICALL2
  -------         ENDMOD        ?C?ICALL

  -------         MODULE        ?C?STRCMP
  C:2668H         PUBLIC        ?C?STRCMP
  -------         ENDMOD        ?C?STRCMP

  -------         MODULE        ?C?MEMSET
  C:2685H         PUBLIC        ?C?MEMSET
  -------         ENDMOD        ?C?MEMSET

  -------         MODULE        VSPRINTF
  X:060AH         PUBLIC        ?_VSPRINTF?BYTE
  C:66D4H         PUBLIC        _VSPRINTF
  -------         ENDMOD        VSPRINTF

  -------         MODULE        ?C?LLDIDATA
  C:26B1H         PUBLIC        ?C?LLDIDATA
  -------         ENDMOD        ?C?LLDIDATA

  -------         MODULE        ?C?LLDXDATA
  C:26BDH         PUBLIC        ?C?LLDXDATA
  -------         ENDMOD        ?C?LLDXDATA

  -------         MODULE        ?C?LLDPDATA
  C:26C9H         PUBLIC        ?C?LLDPDATA
  -------         ENDMOD        ?C?LLDPDATA

  -------         MODULE        ?C?LLDCODE
  C:26D5H         PUBLIC        ?C?LLDCODE
  -------         ENDMOD        ?C?LLDCODE

  -------         MODULE        ?C?LSTIDATA
  C:26E5H         PUBLIC        ?C?LSTIDATA
  -------         ENDMOD        ?C?LSTIDATA

  -------         MODULE        ?C?LSTPDATA
  C:26F1H         PUBLIC        ?C?LSTPDATA
  -------         ENDMOD        ?C?LSTPDATA
BL51 BANKED LINKER/LOCATER V6.22                                                      04/11/2016  14:38:45  PAGE 153



  -------         MODULE        PRINTF
  X:0563H         PUBLIC        ?_PRINTF517?BYTE
  X:0563H         PUBLIC        ?_PRINTF?BYTE
  X:0563H         PUBLIC        ?_SPRINTF517?BYTE
  X:0563H         PUBLIC        ?_SPRINTF?BYTE
  C:2B91H         PUBLIC        _PRINTF
  C:2B91H         PUBLIC        _PRINTF517
  C:2B8BH         PUBLIC        _SPRINTF
  C:2B8BH         PUBLIC        _SPRINTF517
  -------         ENDMOD        PRINTF

  -------         MODULE        ?C?PLDIXDATA
  C:26FDH         PUBLIC        ?C?PLDIXDATA
  -------         ENDMOD        ?C?PLDIXDATA

  -------         MODULE        ?C?PSTXDATA
  C:2714H         PUBLIC        ?C?PSTXDATA
  -------         ENDMOD        ?C?PSTXDATA

  -------         MODULE        PUTCHAR
  C:6F67H         PUBLIC        _PUTCHAR
  -------         ENDMOD        PUTCHAR

*** WARNING L16: UNCALLED SEGMENT, IGNORED FOR OVERLAY PROCESS
    SEGMENT: ?PR?_USART2_SENDSTRING?USART

*** WARNING L16: UNCALLED SEGMENT, IGNORED FOR OVERLAY PROCESS
    SEGMENT: ?PR?_SENDSTRING?USART

*** WARNING L16: UNCALLED SEGMENT, IGNORED FOR OVERLAY PROCESS
    SEGMENT: ?PR?_UART_PRINTF?USART

*** WARNING L16: UNCALLED SEGMENT, IGNORED FOR OVERLAY PROCESS
    SEGMENT: ?PR?SHOW_ON?TM1629

*** WARNING L16: UNCALLED SEGMENT, IGNORED FOR OVERLAY PROCESS
    SEGMENT: ?PR?_DELAYMS?AT24C256

*** WARNING L16: UNCALLED SEGMENT, IGNORED FOR OVERLAY PROCESS
    SEGMENT: ?PR?GD5800_PLAY_MUSIC?GD5800

Program Size: data=23.3 xdata=1564 code=30756
LINK/LOCATE RUN COMPLETE.  6 WARNING(S),  0 ERROR(S)
